Archive member included to satisfy reference by file (symbol)

c:/devkitPro/libctru/lib\libsf2d.a(sf2d.o)
                              main.o (sf2d_fini)
c:/devkitPro/libctru/lib\libsf2d.a(sf2d_texture.o)
                              c:/devkitPro/libctru/lib\libsf2d.a(sf2d.o) (sf2d_create_rendertarget)
c:/devkitPro/libctru/lib\libsf2d.a(shader.shbin.o)
                              c:/devkitPro/libctru/lib\libsf2d.a(sf2d.o) (shader_shbin_size)
c:/devkitPro/libctru/lib\libcitro3d.a(attribs.o)
                              c:/devkitPro/libctru/lib\libsf2d.a(sf2d_texture.o) (AttrInfo_Init)
c:/devkitPro/libctru/lib\libcitro3d.a(base.o)
                              c:/devkitPro/libctru/lib\libcitro3d.a(attribs.o) (__C3D_Context)
c:/devkitPro/libctru/lib\libcitro3d.a(buffers.o)
                              c:/devkitPro/libctru/lib\libsf2d.a(sf2d_texture.o) (BufInfo_Init)
c:/devkitPro/libctru/lib\libcitro3d.a(drawArrays.o)
                              c:/devkitPro/libctru/lib\libsf2d.a(sf2d_texture.o) (C3D_DrawArrays)
c:/devkitPro/libctru/lib\libcitro3d.a(effect.o)
                              c:/devkitPro/libctru/lib\libcitro3d.a(base.o) (C3D_DepthMap)
c:/devkitPro/libctru/lib\libcitro3d.a(immediate.o)
                              c:/devkitPro/libctru/lib\libcitro3d.a(base.o) (C3D_ImmSendAttrib)
c:/devkitPro/libctru/lib\libcitro3d.a(renderbuffer.o)
                              c:/devkitPro/libctru/lib\libcitro3d.a(base.o) (C3Di_RenderBufBind)
c:/devkitPro/libctru/lib\libcitro3d.a(renderqueue.o)
                              c:/devkitPro/libctru/lib\libsf2d.a(sf2d.o) (C3D_FrameBegin)
c:/devkitPro/libctru/lib\libcitro3d.a(texenv.o)
                              c:/devkitPro/libctru/lib\libcitro3d.a(base.o) (TexEnv_Init)
c:/devkitPro/libctru/lib\libcitro3d.a(texture.o)
                              c:/devkitPro/libctru/lib\libsf2d.a(sf2d_texture.o) (C3D_TexInit)
c:/devkitPro/libctru/lib\libcitro3d.a(uniforms.o)
                              c:/devkitPro/libctru/lib\libcitro3d.a(base.o) (C3D_UpdateUniforms)
c:/devkitPro/libctru/lib\libcitro3d.a(mtx_orthotilt.o)
                              c:/devkitPro/libctru/lib\libsf2d.a(sf2d_texture.o) (Mtx_OrthoTilt)
c:/devkitPro/libctru/lib\libcitro3d.a(mtx_identity.o)
                              c:/devkitPro/libctru/lib\libcitro3d.a(mtx_orthotilt.o) (Mtx_Identity)
c:/devkitPro/libctru/lib\libcitro3d.a(mtx_multiply.o)
                              c:/devkitPro/libctru/lib\libcitro3d.a(mtx_orthotilt.o) (Mtx_Multiply)
c:/devkitPro/libctru/lib\libctru.a(linear.o)
                              c:/devkitPro/libctru/lib\libsf2d.a(sf2d.o) (linearAlloc)
c:/devkitPro/libctru/lib\libctru.a(mem_pool.o)
                              c:/devkitPro/libctru/lib\libctru.a(linear.o) (MemPool::Allocate(MemChunk&, unsigned long, int))
c:/devkitPro/libctru/lib\libctru.a(vram.o)
                              c:/devkitPro/libctru/lib\libcitro3d.a(texture.o) (vramAlloc)
c:/devkitPro/libctru/lib\libctru.a(gfx.o)
                              c:/devkitPro/libctru/lib\libsf2d.a(sf2d.o) (gfxSet3D)
c:/devkitPro/libctru/lib\libctru.a(os.o)
                              c:/devkitPro/libctru/lib\libcitro3d.a(base.o) (osConvertVirtToPhys)
c:/devkitPro/libctru/lib\libctru.a(gpu.o)
                              c:/devkitPro/libctru/lib\libcitro3d.a(base.o) (GPUCMD_SetBuffer)
c:/devkitPro/libctru/lib\libctru.a(gx.o)
                              c:/devkitPro/libctru/lib\libctru.a(gfx.o) (gxCmdBuf)
c:/devkitPro/libctru/lib\libctru.a(shaderProgram.o)
                              c:/devkitPro/libctru/lib\libsf2d.a(sf2d.o) (shaderInstanceGetUniformLocation)
c:/devkitPro/libctru/lib\libctru.a(shbin.o)
                              c:/devkitPro/libctru/lib\libsf2d.a(sf2d.o) (DVLB_Free)
c:/devkitPro/libctru/lib\libctru.a(apt.o)
                              c:/devkitPro/libctru/lib\libcitro3d.a(base.o) (aptHook)
c:/devkitPro/libctru/lib\libctru.a(gspgpu.o)
                              c:/devkitPro/libctru/lib\libctru.a(gfx.o) (gspInit)
c:/devkitPro/libctru/lib\libctru.a(hid.o)
                              main.o (hidExit)
c:/devkitPro/libctru/lib\libctru.a(irrst.o)
                              c:/devkitPro/libctru/lib\libctru.a(hid.o) (irrstScanInput)
c:/devkitPro/libctru/lib\libctru.a(ptmsysm.o)
                              c:/devkitPro/libctru/lib\libctru.a(os.o) (ptmSysmInit)
c:/devkitPro/libctru/lib\libctru.a(rbtree_find.o)
                              c:/devkitPro/libctru/lib\libctru.a(linear.o) (rbtree_find)
c:/devkitPro/libctru/lib\libctru.a(rbtree_init.o)
                              c:/devkitPro/libctru/lib\libctru.a(linear.o) (rbtree_init)
c:/devkitPro/libctru/lib\libctru.a(rbtree_insert.o)
                              c:/devkitPro/libctru/lib\libctru.a(linear.o) (rbtree_insert)
c:/devkitPro/libctru/lib\libctru.a(rbtree_remove.o)
                              c:/devkitPro/libctru/lib\libctru.a(linear.o) (rbtree_remove)
c:/devkitPro/libctru/lib\libctru.a(rbtree_rotate.o)
                              c:/devkitPro/libctru/lib\libctru.a(rbtree_insert.o) (rbtree_rotate)
c:/devkitPro/libctru/lib\libctru.a(allocateHeaps.o)
                              c:/devkitPro/libctru/lib\libcitro3d.a(base.o) (__ctru_linear_heap_size)
c:/devkitPro/libctru/lib\libctru.a(initArgv.o)
                              c:/devkitpro/devkitarm/bin/../lib/gcc/arm-none-eabi/5.3.0/../../../../arm-none-eabi/lib/armv6k/fpu/3dsx_crt0.o (__system_argc)
c:/devkitPro/libctru/lib\libctru.a(initSystem.o)
                              c:/devkitPro/libctru/lib\libctru.a(apt.o) (__system_retAddr)
c:/devkitPro/libctru/lib\libctru.a(syscalls.o)
                              c:/devkitPro/libctru/lib\libctru.a(initSystem.o) (__system_initSyscalls)
c:/devkitPro/libctru/lib\libctru.a(svc.o)
                              c:/devkitPro/libctru/lib\libctru.a(allocateHeaps.o) (svcControlMemory)
c:/devkitPro/libctru/lib\libctru.a(stack_adjust.o)
                              c:/devkitpro/devkitarm/bin/../lib/gcc/arm-none-eabi/5.3.0/../../../../arm-none-eabi/lib/armv6k/fpu/3dsx_crt0.o (initSystem)
c:/devkitPro/libctru/lib\libctru.a(mappable.o)
                              c:/devkitPro/libctru/lib\libctru.a(gfx.o) (mappableAlloc)
c:/devkitPro/libctru/lib\libctru.a(env.o)
                              c:/devkitPro/libctru/lib\libctru.a(irrst.o) (envGetHandle)
c:/devkitPro/libctru/lib\libctru.a(srv.o)
                              c:/devkitPro/libctru/lib\libctru.a(apt.o) (srvInit)
c:/devkitPro/libctru/lib\libctru.a(synchronization.o)
                              c:/devkitPro/libctru/lib\libctru.a(initSystem.o) (__sync_init)
c:/devkitPro/libctru/lib\libctru.a(thread.o)
                              c:/devkitPro/libctru/lib\libctru.a(apt.o) (threadCreate)
c:/devkitPro/libctru/lib\libctru.a(rbtree_iterator.o)
                              c:/devkitPro/libctru/lib\libctru.a(rbtree_remove.o) (rbtree_node_next)
c:/devkitPro/libctru/lib\libctru.a(appExit.o)
                              c:/devkitPro/libctru/lib\libctru.a(stack_adjust.o) (__appExit)
c:/devkitPro/libctru/lib\libctru.a(appInit.o)
                              c:/devkitPro/libctru/lib\libctru.a(stack_adjust.o) (__appInit)
c:/devkitPro/libctru/lib\libctru.a(ctru_exit.o)
                              c:/devkitPro/libctru/lib\libctru.a(stack_adjust.o) (__libctru_exit)
c:/devkitPro/libctru/lib\libctru.a(sdmc_dev.o)
                              c:/devkitPro/libctru/lib\libctru.a(appInit.o) (sdmcInit)
c:/devkitPro/libctru/lib\libctru.a(fs.o)
                              c:/devkitPro/libctru/lib\libctru.a(appInit.o) (fsInit)
c:/devkitPro/libctru/lib\libctru.a(decode_utf8.o)
                              c:/devkitPro/libctru/lib\libctru.a(sdmc_dev.o) (decode_utf8)
c:/devkitPro/libctru/lib\libctru.a(utf16_to_utf8.o)
                              c:/devkitPro/libctru/lib\libctru.a(sdmc_dev.o) (utf16_to_utf8)
c:/devkitPro/libctru/lib\libctru.a(utf8_to_utf16.o)
                              c:/devkitPro/libctru/lib\libctru.a(sdmc_dev.o) (utf8_to_utf16)
c:/devkitPro/libctru/lib\libctru.a(readtp.o)
                              c:/devkitPro/libctru/lib\libctru.a(sdmc_dev.o) (__aeabi_read_tp)
c:/devkitPro/libctru/lib\libctru.a(decode_utf16.o)
                              c:/devkitPro/libctru/lib\libctru.a(utf16_to_utf8.o) (decode_utf16)
c:/devkitPro/libctru/lib\libctru.a(encode_utf16.o)
                              c:/devkitPro/libctru/lib\libctru.a(utf8_to_utf16.o) (encode_utf16)
c:/devkitPro/libctru/lib\libctru.a(encode_utf8.o)
                              c:/devkitPro/libctru/lib\libctru.a(utf16_to_utf8.o) (encode_utf8)
c:/devkitpro/devkitarm/bin/../lib/gcc/arm-none-eabi/5.3.0/../../../../arm-none-eabi/lib/armv6k/fpu\libm.a(lib_a-sf_cos.o)
                              c:/devkitPro/libctru/lib\libsf2d.a(sf2d_texture.o) (cosf)
c:/devkitpro/devkitarm/bin/../lib/gcc/arm-none-eabi/5.3.0/../../../../arm-none-eabi/lib/armv6k/fpu\libm.a(lib_a-sf_sin.o)
                              c:/devkitPro/libctru/lib\libsf2d.a(sf2d_texture.o) (sinf)
c:/devkitpro/devkitarm/bin/../lib/gcc/arm-none-eabi/5.3.0/../../../../arm-none-eabi/lib/armv6k/fpu\libm.a(lib_a-ef_rem_pio2.o)
                              c:/devkitpro/devkitarm/bin/../lib/gcc/arm-none-eabi/5.3.0/../../../../arm-none-eabi/lib/armv6k/fpu\libm.a(lib_a-sf_cos.o) (__ieee754_rem_pio2f)
c:/devkitpro/devkitarm/bin/../lib/gcc/arm-none-eabi/5.3.0/../../../../arm-none-eabi/lib/armv6k/fpu\libm.a(lib_a-kf_cos.o)
                              c:/devkitpro/devkitarm/bin/../lib/gcc/arm-none-eabi/5.3.0/../../../../arm-none-eabi/lib/armv6k/fpu\libm.a(lib_a-sf_cos.o) (__kernel_cosf)
c:/devkitpro/devkitarm/bin/../lib/gcc/arm-none-eabi/5.3.0/../../../../arm-none-eabi/lib/armv6k/fpu\libm.a(lib_a-kf_rem_pio2.o)
                              c:/devkitpro/devkitarm/bin/../lib/gcc/arm-none-eabi/5.3.0/../../../../arm-none-eabi/lib/armv6k/fpu\libm.a(lib_a-ef_rem_pio2.o) (__kernel_rem_pio2f)
c:/devkitpro/devkitarm/bin/../lib/gcc/arm-none-eabi/5.3.0/../../../../arm-none-eabi/lib/armv6k/fpu\libm.a(lib_a-kf_sin.o)
                              c:/devkitpro/devkitarm/bin/../lib/gcc/arm-none-eabi/5.3.0/../../../../arm-none-eabi/lib/armv6k/fpu\libm.a(lib_a-sf_cos.o) (__kernel_sinf)
c:/devkitpro/devkitarm/bin/../lib/gcc/arm-none-eabi/5.3.0/../../../../arm-none-eabi/lib/armv6k/fpu\libm.a(lib_a-sf_fabs.o)
                              c:/devkitpro/devkitarm/bin/../lib/gcc/arm-none-eabi/5.3.0/../../../../arm-none-eabi/lib/armv6k/fpu\libm.a(lib_a-ef_rem_pio2.o) (fabsf)
c:/devkitpro/devkitarm/bin/../lib/gcc/arm-none-eabi/5.3.0/../../../../arm-none-eabi/lib/armv6k/fpu\libm.a(lib_a-sf_floor.o)
                              c:/devkitpro/devkitarm/bin/../lib/gcc/arm-none-eabi/5.3.0/../../../../arm-none-eabi/lib/armv6k/fpu\libm.a(lib_a-kf_rem_pio2.o) (floorf)
c:/devkitpro/devkitarm/bin/../lib/gcc/arm-none-eabi/5.3.0/../../../../arm-none-eabi/lib/armv6k/fpu\libm.a(lib_a-sf_scalbn.o)
                              c:/devkitpro/devkitarm/bin/../lib/gcc/arm-none-eabi/5.3.0/../../../../arm-none-eabi/lib/armv6k/fpu\libm.a(lib_a-kf_rem_pio2.o) (scalbnf)
c:/devkitpro/devkitarm/bin/../lib/gcc/arm-none-eabi/5.3.0/../../../../arm-none-eabi/lib/armv6k/fpu\libm.a(lib_a-sf_copysign.o)
                              c:/devkitpro/devkitarm/bin/../lib/gcc/arm-none-eabi/5.3.0/../../../../arm-none-eabi/lib/armv6k/fpu\libm.a(lib_a-sf_scalbn.o) (copysignf)
c:/devkitpro/devkitarm/bin/../lib/gcc/arm-none-eabi/5.3.0/armv6k/fpu\libgcc.a(_arm_addsubsf3.o)
                              c:/devkitPro/libctru/lib\libsf2d.a(sf2d.o) (__aeabi_ul2f)
c:/devkitpro/devkitarm/bin/../lib/gcc/arm-none-eabi/5.3.0/armv6k/fpu\libgcc.a(_aeabi_uldivmod.o)
                              c:/devkitPro/libctru/lib\libctru.a(sdmc_dev.o) (__aeabi_uldivmod)
c:/devkitpro/devkitarm/bin/../lib/gcc/arm-none-eabi/5.3.0/armv6k/fpu\libgcc.a(_udivmoddi4.o)
                              c:/devkitpro/devkitarm/bin/../lib/gcc/arm-none-eabi/5.3.0/armv6k/fpu\libgcc.a(_aeabi_uldivmod.o) (__udivmoddi4)
c:/devkitpro/devkitarm/bin/../lib/gcc/arm-none-eabi/5.3.0/armv6k/fpu\libgcc.a(_dvmd_tls.o)
                              c:/devkitpro/devkitarm/bin/../lib/gcc/arm-none-eabi/5.3.0/armv6k/fpu\libgcc.a(_aeabi_uldivmod.o) (__aeabi_ldiv0)
c:/devkitpro/devkitarm/bin/../lib/gcc/arm-none-eabi/5.3.0/../../../../arm-none-eabi/lib/armv6k/fpu\libg.a(lib_a-bsearch.o)
                              c:/devkitPro/libctru/lib\libctru.a(sdmc_dev.o) (bsearch)
c:/devkitpro/devkitarm/bin/../lib/gcc/arm-none-eabi/5.3.0/../../../../arm-none-eabi/lib/armv6k/fpu\libg.a(lib_a-calloc.o)
                              c:/devkitPro/libctru/lib\libsf2d.a(sf2d_texture.o) (calloc)
c:/devkitpro/devkitarm/bin/../lib/gcc/arm-none-eabi/5.3.0/../../../../arm-none-eabi/lib/armv6k/fpu\libg.a(lib_a-callocr.o)
                              c:/devkitpro/devkitarm/bin/../lib/gcc/arm-none-eabi/5.3.0/../../../../arm-none-eabi/lib/armv6k/fpu\libg.a(lib_a-calloc.o) (_calloc_r)
c:/devkitpro/devkitarm/bin/../lib/gcc/arm-none-eabi/5.3.0/../../../../arm-none-eabi/lib/armv6k/fpu\libg.a(lib_a-errno.o)
                              c:/devkitPro/libctru/lib\libctru.a(sdmc_dev.o) (__errno)
c:/devkitpro/devkitarm/bin/../lib/gcc/arm-none-eabi/5.3.0/../../../../arm-none-eabi/lib/armv6k/fpu\libg.a(lib_a-fini.o)
                              c:/devkitPro/libctru/lib\libctru.a(stack_adjust.o) (__libc_fini_array)
c:/devkitpro/devkitarm/bin/../lib/gcc/arm-none-eabi/5.3.0/../../../../arm-none-eabi/lib/armv6k/fpu\libg.a(lib_a-impure.o)
                              c:/devkitPro/libctru/lib\libctru.a(syscalls.o) (_impure_ptr)
c:/devkitpro/devkitarm/bin/../lib/gcc/arm-none-eabi/5.3.0/../../../../arm-none-eabi/lib/armv6k/fpu\libg.a(lib_a-init.o)
                              c:/devkitPro/libctru/lib\libctru.a(stack_adjust.o) (__libc_init_array)
c:/devkitpro/devkitarm/bin/../lib/gcc/arm-none-eabi/5.3.0/../../../../arm-none-eabi/lib/armv6k/fpu\libg.a(lib_a-malign.o)
                              c:/devkitPro/libctru/lib\libctru.a(thread.o) (memalign)
c:/devkitpro/devkitarm/bin/../lib/gcc/arm-none-eabi/5.3.0/../../../../arm-none-eabi/lib/armv6k/fpu\libg.a(lib_a-malignr.o)
                              c:/devkitpro/devkitarm/bin/../lib/gcc/arm-none-eabi/5.3.0/../../../../arm-none-eabi/lib/armv6k/fpu\libg.a(lib_a-malign.o) (_memalign_r)
c:/devkitpro/devkitarm/bin/../lib/gcc/arm-none-eabi/5.3.0/../../../../arm-none-eabi/lib/armv6k/fpu\libg.a(lib_a-malloc.o)
                              c:/devkitPro/libctru/lib\libctru.a(linear.o) (malloc)
c:/devkitpro/devkitarm/bin/../lib/gcc/arm-none-eabi/5.3.0/../../../../arm-none-eabi/lib/armv6k/fpu\libg.a(lib_a-mallocr.o)
                              c:/devkitpro/devkitarm/bin/../lib/gcc/arm-none-eabi/5.3.0/../../../../arm-none-eabi/lib/armv6k/fpu\libg.a(lib_a-callocr.o) (_malloc_r)
c:/devkitpro/devkitarm/bin/../lib/gcc/arm-none-eabi/5.3.0/../../../../arm-none-eabi/lib/armv6k/fpu\libg.a(lib_a-memcpy.o)
                              c:/devkitPro/libctru/lib\libsf2d.a(sf2d_texture.o) (memcpy)
c:/devkitpro/devkitarm/bin/../lib/gcc/arm-none-eabi/5.3.0/../../../../arm-none-eabi/lib/armv6k/fpu\libg.a(lib_a-memset.o)
                              c:/devkitPro/libctru/lib\libcitro3d.a(buffers.o) (memset)
c:/devkitpro/devkitarm/bin/../lib/gcc/arm-none-eabi/5.3.0/../../../../arm-none-eabi/lib/armv6k/fpu\libg.a(lib_a-mlock.o)
                              c:/devkitpro/devkitarm/bin/../lib/gcc/arm-none-eabi/5.3.0/../../../../arm-none-eabi/lib/armv6k/fpu\libg.a(lib_a-malignr.o) (__malloc_lock)
c:/devkitpro/devkitarm/bin/../lib/gcc/arm-none-eabi/5.3.0/../../../../arm-none-eabi/lib/armv6k/fpu\libg.a(lib_a-strcmp.o)
                              c:/devkitPro/libctru/lib\libctru.a(shbin.o) (strcmp)
c:/devkitpro/devkitarm/bin/../lib/gcc/arm-none-eabi/5.3.0/../../../../arm-none-eabi/lib/armv6k/fpu\libg.a(lib_a-strlen.o)
                              c:/devkitPro/libctru/lib\libctru.a(srv.o) (strlen)
c:/devkitpro/devkitarm/bin/../lib/gcc/arm-none-eabi/5.3.0/../../../../arm-none-eabi/lib/armv6k/fpu\libg.a(lib_a-strncat.o)
                              c:/devkitPro/libctru/lib\libctru.a(sdmc_dev.o) (strncat)
c:/devkitpro/devkitarm/bin/../lib/gcc/arm-none-eabi/5.3.0/../../../../arm-none-eabi/lib/armv6k/fpu\libg.a(lib_a-strncpy.o)
                              c:/devkitPro/libctru/lib\libctru.a(srv.o) (strncpy)
c:/devkitpro/devkitarm/bin/../lib/gcc/arm-none-eabi/5.3.0/../../../../arm-none-eabi/lib/armv6k/fpu\libg.a(lib_a-freer.o)
                              c:/devkitpro/devkitarm/bin/../lib/gcc/arm-none-eabi/5.3.0/../../../../arm-none-eabi/lib/armv6k/fpu\libg.a(lib_a-malignr.o) (_free_r)
c:/devkitpro/devkitarm/bin/../lib/gcc/arm-none-eabi/5.3.0/../../../../arm-none-eabi/lib/armv6k/fpu\libsysbase.a(iosupport.o)
                              c:/devkitPro/libctru/lib\libctru.a(sdmc_dev.o) (setDefaultDevice)
c:/devkitpro/devkitarm/bin/../lib/gcc/arm-none-eabi/5.3.0/../../../../arm-none-eabi/lib/armv6k/fpu\libsysbase.a(sbrk.o)
                              c:/devkitpro/devkitarm/bin/../lib/gcc/arm-none-eabi/5.3.0/../../../../arm-none-eabi/lib/armv6k/fpu\libg.a(lib_a-mallocr.o) (_sbrk_r)
c:/devkitpro/devkitarm/bin/../lib/gcc/arm-none-eabi/5.3.0/../../../../arm-none-eabi/lib/armv6k/fpu\libsysbase.a(malloc_vars.o)
                              c:/devkitPro/libctru/lib\libctru.a(allocateHeaps.o) (fake_heap_start)
c:/devkitpro/devkitarm/bin/../lib/gcc/arm-none-eabi/5.3.0/../../../../arm-none-eabi/lib/armv6k/fpu\libsysbase.a(chdir.o)
                              c:/devkitPro/libctru/lib\libctru.a(sdmc_dev.o) (chdir)
c:/devkitpro/devkitarm/bin/../lib/gcc/arm-none-eabi/5.3.0/../../../../arm-none-eabi/lib/armv6k/fpu\libsysbase.a(syscall_support.o)
                              c:/devkitpro/devkitarm/bin/../lib/gcc/arm-none-eabi/5.3.0/../../../../arm-none-eabi/lib/armv6k/fpu\libg.a(lib_a-mlock.o) (__libc_lock_acquire_recursive)
c:/devkitpro/devkitarm/bin/../lib/gcc/arm-none-eabi/5.3.0/../../../../arm-none-eabi/lib/armv6k/fpu\libsysbase.a(getreent.o)
                              c:/devkitpro/devkitarm/bin/../lib/gcc/arm-none-eabi/5.3.0/../../../../arm-none-eabi/lib/armv6k/fpu\libg.a(lib_a-calloc.o) (__getreent)
c:/devkitpro/devkitarm/bin/../lib/gcc/arm-none-eabi/5.3.0/armv6k/fpu\libgcc.a(_udivsi3.o)
                              c:/devkitpro/devkitarm/bin/../lib/gcc/arm-none-eabi/5.3.0/../../../../arm-none-eabi/lib/armv6k/fpu\libg.a(lib_a-malignr.o) (__aeabi_uidivmod)
c:/devkitpro/devkitarm/bin/../lib/gcc/arm-none-eabi/5.3.0/../../../../arm-none-eabi/lib/armv6k/fpu\libg.a(lib_a-ctype_.o)
                              c:/devkitpro/devkitarm/bin/../lib/gcc/arm-none-eabi/5.3.0/../../../../arm-none-eabi/lib/armv6k/fpu\libsysbase.a(iosupport.o) (__ctype_ptr__)
c:/devkitpro/devkitarm/bin/../lib/gcc/arm-none-eabi/5.3.0/../../../../arm-none-eabi/lib/armv6k/fpu\libg.a(lib_a-strchr.o)
                              c:/devkitpro/devkitarm/bin/../lib/gcc/arm-none-eabi/5.3.0/../../../../arm-none-eabi/lib/armv6k/fpu\libsysbase.a(iosupport.o) (strchr)
c:/devkitpro/devkitarm/bin/../lib/gcc/arm-none-eabi/5.3.0/../../../../arm-none-eabi/lib/armv6k/fpu\libg.a(lib_a-strncmp.o)
                              c:/devkitpro/devkitarm/bin/../lib/gcc/arm-none-eabi/5.3.0/../../../../arm-none-eabi/lib/armv6k/fpu\libsysbase.a(iosupport.o) (strncmp)
c:/devkitpro/devkitarm/bin/../lib/gcc/arm-none-eabi/5.3.0/../../../../arm-none-eabi/lib/armv6k/fpu\libg.a(lib_a-strnlen.o)
                              c:/devkitpro/devkitarm/bin/../lib/gcc/arm-none-eabi/5.3.0/../../../../arm-none-eabi/lib/armv6k/fpu\libsysbase.a(chdir.o) (strnlen)
c:/devkitpro/devkitarm/bin/../lib/gcc/arm-none-eabi/5.3.0/../../../../arm-none-eabi/lib/armv6k/fpu\libg.a(lib_a-strrchr.o)
                              c:/devkitpro/devkitarm/bin/../lib/gcc/arm-none-eabi/5.3.0/../../../../arm-none-eabi/lib/armv6k/fpu\libsysbase.a(chdir.o) (strrchr)

Allocating common symbols
Common symbol       size              file

hidMemHandle        0x4               c:/devkitPro/libctru/lib\libctru.a(hid.o)
hidHandle           0x4               c:/devkitPro/libctru/lib\libctru.a(hid.o)
gfxBottomFramebuffers
                    0x8               c:/devkitPro/libctru/lib\libctru.a(gfx.o)
gspSharedMemHandle  0x4               c:/devkitPro/libctru/lib\libctru.a(gfx.o)
C3D_IVUnif          0x20              c:/devkitPro/libctru/lib\libcitro3d.a(uniforms.o)
__system_argv       0x4               c:/devkitPro/libctru/lib\libctru.a(initArgv.o)
__ctru_heap_size    0x4               c:/devkitPro/libctru/lib\libctru.a(allocateHeaps.o)
gspGpuHandle        0x4               c:/devkitPro/libctru/lib\libctru.a(gspgpu.o)
__C3D_Context       0x278             c:/devkitPro/libctru/lib\libcitro3d.a(base.o)
hidSharedMem        0x4               c:/devkitPro/libctru/lib\libctru.a(hid.o)
__system_argc       0x4               c:/devkitPro/libctru/lib\libctru.a(initArgv.o)
bottomFramebufferInfo
                    0x1c              c:/devkitPro/libctru/lib\libctru.a(gfx.o)
C3D_FVUnifDirty     0xc0              c:/devkitPro/libctru/lib\libcitro3d.a(uniforms.o)
irrstHandle         0x4               c:/devkitPro/libctru/lib\libctru.a(irrst.o)
C3D_BoolUnifsDirty  0x2               c:/devkitPro/libctru/lib\libcitro3d.a(uniforms.o)
gspEvent            0x4               c:/devkitPro/libctru/lib\libctru.a(gfx.o)
hidEvents           0x14              c:/devkitPro/libctru/lib\libctru.a(hid.o)
__system_retAddr    0x4               c:/devkitPro/libctru/lib\libctru.a(initSystem.o)
__ctru_linear_heap  0x4               c:/devkitPro/libctru/lib\libctru.a(allocateHeaps.o)
gpuCmdBuf           0x4               c:/devkitPro/libctru/lib\libctru.a(gpu.o)
irrstEvent          0x4               c:/devkitPro/libctru/lib\libctru.a(irrst.o)
__ctru_heap         0x4               c:/devkitPro/libctru/lib\libctru.a(allocateHeaps.o)
C3D_IVUnifDirty     0x8               c:/devkitPro/libctru/lib\libcitro3d.a(uniforms.o)
irrstMemHandle      0x4               c:/devkitPro/libctru/lib\libctru.a(irrst.o)
C3D_BoolUnifs       0x4               c:/devkitPro/libctru/lib\libcitro3d.a(uniforms.o)
gfxTopLeftFramebuffers
                    0x8               c:/devkitPro/libctru/lib\libctru.a(gfx.o)
gfxTopRightFramebuffers
                    0x8               c:/devkitPro/libctru/lib\libctru.a(gfx.o)
touchPos            0x4               main.o
topFramebufferInfo  0x1c              c:/devkitPro/libctru/lib\libctru.a(gfx.o)
gpuCmdBufOffset     0x4               c:/devkitPro/libctru/lib\libctru.a(gpu.o)
C3D_FVUnif          0xc00             c:/devkitPro/libctru/lib\libcitro3d.a(uniforms.o)
gfxThreadID         0x1               c:/devkitPro/libctru/lib\libctru.a(gfx.o)
gfxSharedMemory     0x4               c:/devkitPro/libctru/lib\libctru.a(gfx.o)
__ctru_linear_heap_size
                    0x4               c:/devkitPro/libctru/lib\libctru.a(allocateHeaps.o)
irrstSharedMem      0x4               c:/devkitPro/libctru/lib\libctru.a(irrst.o)
gpuCmdBufSize       0x4               c:/devkitPro/libctru/lib\libctru.a(gpu.o)
gxCmdBuf            0x4               c:/devkitPro/libctru/lib\libctru.a(gx.o)
Cur_State           0x1               button.o

Discarded input sections

 .text          0x00000000        0x0 c:/devkitpro/devkitarm/bin/../lib/gcc/arm-none-eabi/5.3.0/../../../../arm-none-eabi/lib/armv6k/fpu/3dsx_crt0.o
 .data          0x00000000        0x0 c:/devkitpro/devkitarm/bin/../lib/gcc/arm-none-eabi/5.3.0/../../../../arm-none-eabi/lib/armv6k/fpu/3dsx_crt0.o
 .bss           0x00000000        0x0 c:/devkitpro/devkitarm/bin/../lib/gcc/arm-none-eabi/5.3.0/../../../../arm-none-eabi/lib/armv6k/fpu/3dsx_crt0.o
 .text          0x00000000        0x0 c:/devkitpro/devkitarm/bin/../lib/gcc/arm-none-eabi/5.3.0/armv6k/fpu/crti.o
 .data          0x00000000        0x0 c:/devkitpro/devkitarm/bin/../lib/gcc/arm-none-eabi/5.3.0/armv6k/fpu/crti.o
 .bss           0x00000000        0x0 c:/devkitpro/devkitarm/bin/../lib/gcc/arm-none-eabi/5.3.0/armv6k/fpu/crti.o
 .data          0x00000000        0x4 c:/devkitpro/devkitarm/bin/../lib/gcc/arm-none-eabi/5.3.0/armv6k/fpu/crtbegin.o
 .comment       0x00000000       0x23 c:/devkitpro/devkitarm/bin/../lib/gcc/arm-none-eabi/5.3.0/armv6k/fpu/crtbegin.o
 .data          0x00000000        0x0 ball.o
 .bss           0x00000000        0x0 ball.o
 .comment       0x00000000       0x23 ball.o
 .text          0x00000000        0x0 ball_tex.o
 .data          0x00000000        0x0 ball_tex.o
 .bss           0x00000000        0x0 ball_tex.o
 .comment       0x00000000       0x23 ball_tex.o
 .data          0x00000000        0x0 button.o
 .bss           0x00000000        0x0 button.o
 .comment       0x00000000       0x23 button.o
 .text          0x00000000        0x0 button_Selector_Tex.o
 .data          0x00000000        0x0 button_Selector_Tex.o
 .bss           0x00000000        0x0 button_Selector_Tex.o
 .comment       0x00000000       0x23 button_Selector_Tex.o
 .text          0x00000000        0x0 double_Button_Tex.o
 .data          0x00000000        0x0 double_Button_Tex.o
 .bss           0x00000000        0x0 double_Button_Tex.o
 .comment       0x00000000       0x23 double_Button_Tex.o
 .text          0x00000000        0x0 game_title_tex.o
 .data          0x00000000        0x0 game_title_tex.o
 .bss           0x00000000        0x0 game_title_tex.o
 .comment       0x00000000       0x23 game_title_tex.o
 .text          0x00000000        0x0 main.o
 .data          0x00000000        0x0 main.o
 .bss           0x00000000        0x0 main.o
 .comment       0x00000000       0x23 main.o
 .data          0x00000000        0x0 menu.o
 .bss           0x00000000        0x0 menu.o
 .comment       0x00000000       0x23 menu.o
 .text          0x00000000        0x0 menu_Title_Tex.o
 .data          0x00000000        0x0 menu_Title_Tex.o
 .bss           0x00000000        0x0 menu_Title_Tex.o
 .comment       0x00000000       0x23 menu_Title_Tex.o
 .text          0x00000000        0x0 midline_Tex.o
 .data          0x00000000        0x0 midline_Tex.o
 .bss           0x00000000        0x0 midline_Tex.o
 .comment       0x00000000       0x23 midline_Tex.o
 .data          0x00000000        0x0 paddle.o
 .bss           0x00000000        0x0 paddle.o
 .comment       0x00000000       0x23 paddle.o
 .text          0x00000000        0x0 paddle_tex.o
 .data          0x00000000        0x0 paddle_tex.o
 .bss           0x00000000        0x0 paddle_tex.o
 .comment       0x00000000       0x23 paddle_tex.o
 .text          0x00000000        0x0 quit_Button_Tex.o
 .data          0x00000000        0x0 quit_Button_Tex.o
 .bss           0x00000000        0x0 quit_Button_Tex.o
 .comment       0x00000000       0x23 quit_Button_Tex.o
 .text          0x00000000        0x0 single_Button_Tex.o
 .data          0x00000000        0x0 single_Button_Tex.o
 .bss           0x00000000        0x0 single_Button_Tex.o
 .comment       0x00000000       0x23 single_Button_Tex.o
 .data          0x00000000        0x0 two_player_mode.o
 .bss           0x00000000        0x0 two_player_mode.o
 .comment       0x00000000       0x23 two_player_mode.o
 .text          0x00000000        0x0 c:/devkitPro/libctru/lib\libsf2d.a(sf2d.o)
 .text.sf2d_set_3D
                0x00000000        0xc c:/devkitPro/libctru/lib\libsf2d.a(sf2d.o)
 .text.sf2d_set_transform
                0x00000000       0xa4 c:/devkitPro/libctru/lib\libsf2d.a(sf2d.o)
 .text.sf2d_set_vblank_wait
                0x00000000       0x10 c:/devkitPro/libctru/lib\libsf2d.a(sf2d.o)
 .text.sf2d_get_fps
                0x00000000       0x10 c:/devkitPro/libctru/lib\libsf2d.a(sf2d.o)
 .text.sf2d_pool_malloc
                0x00000000       0x2c c:/devkitPro/libctru/lib\libsf2d.a(sf2d.o)
 .text.sf2d_pool_calloc
                0x00000000       0x40 c:/devkitPro/libctru/lib\libsf2d.a(sf2d.o)
 .text.sf2d_pool_space_free
                0x00000000       0x18 c:/devkitPro/libctru/lib\libsf2d.a(sf2d.o)
 .text.sf2d_pool_reset
                0x00000000       0x14 c:/devkitPro/libctru/lib\libsf2d.a(sf2d.o)
 .text.sf2d_init_advanced
                0x00000000       0x20 c:/devkitPro/libctru/lib\libsf2d.a(sf2d.o)
 .text.sf2d_set_scissor_test
                0x00000000       0x4c c:/devkitPro/libctru/lib\libsf2d.a(sf2d.o)
 .text.sf2d_get_current_screen
                0x00000000       0x10 c:/devkitPro/libctru/lib\libsf2d.a(sf2d.o)
 .text.sf2d_get_current_side
                0x00000000       0x10 c:/devkitPro/libctru/lib\libsf2d.a(sf2d.o)
 .comment       0x00000000       0x23 c:/devkitPro/libctru/lib\libsf2d.a(sf2d.o)
 .text          0x00000000        0x0 c:/devkitPro/libctru/lib\libsf2d.a(sf2d_texture.o)
 .data          0x00000000        0x0 c:/devkitPro/libctru/lib\libsf2d.a(sf2d_texture.o)
 .bss           0x00000000        0x0 c:/devkitPro/libctru/lib\libsf2d.a(sf2d_texture.o)
 .text.next_pow2
                0x00000000       0x28 c:/devkitPro/libctru/lib\libsf2d.a(sf2d_texture.o)
 .text.sf2d_free_texture
                0x00000000       0x20 c:/devkitPro/libctru/lib\libsf2d.a(sf2d_texture.o)
 .text.sf2d_free_target
                0x00000000       0x1c c:/devkitPro/libctru/lib\libsf2d.a(sf2d_texture.o)
 .text.sf2d_texture_tile32_hardware
                0x00000000       0x10 c:/devkitPro/libctru/lib\libsf2d.a(sf2d_texture.o)
 .text.sf2d_bind_texture_color
                0x00000000       0x60 c:/devkitPro/libctru/lib\libsf2d.a(sf2d_texture.o)
 .text.sf2d_texture_set_params
                0x00000000        0x8 c:/devkitPro/libctru/lib\libsf2d.a(sf2d_texture.o)
 .text.sf2d_texture_get_params
                0x00000000        0x8 c:/devkitPro/libctru/lib\libsf2d.a(sf2d_texture.o)
 .text.sf2d_draw_texture_blend
                0x00000000      0x164 c:/devkitPro/libctru/lib\libsf2d.a(sf2d_texture.o)
 .text.sf2d_draw_texture_rotate_hotspot
                0x00000000      0x1c0 c:/devkitPro/libctru/lib\libsf2d.a(sf2d_texture.o)
 .text.sf2d_draw_texture_rotate_hotspot_blend
                0x00000000      0x1c4 c:/devkitPro/libctru/lib\libsf2d.a(sf2d_texture.o)
 .text.sf2d_draw_texture_rotate
                0x00000000      0x1d4 c:/devkitPro/libctru/lib\libsf2d.a(sf2d_texture.o)
 .text.sf2d_draw_texture_rotate_blend
                0x00000000      0x1d8 c:/devkitPro/libctru/lib\libsf2d.a(sf2d_texture.o)
 .text.sf2d_draw_texture_rotate_scale_hotspot
                0x00000000      0x1d8 c:/devkitPro/libctru/lib\libsf2d.a(sf2d_texture.o)
 .text.sf2d_draw_texture_rotate_scale_hotspot_blend
                0x00000000      0x1dc c:/devkitPro/libctru/lib\libsf2d.a(sf2d_texture.o)
 .text.sf2d_draw_texture_part
                0x00000000      0x18c c:/devkitPro/libctru/lib\libsf2d.a(sf2d_texture.o)
 .text.sf2d_draw_texture_part_blend
                0x00000000      0x190 c:/devkitPro/libctru/lib\libsf2d.a(sf2d_texture.o)
 .text.sf2d_draw_texture_scale
                0x00000000      0x18c c:/devkitPro/libctru/lib\libsf2d.a(sf2d_texture.o)
 .text.sf2d_draw_texture_scale_blend
                0x00000000      0x190 c:/devkitPro/libctru/lib\libsf2d.a(sf2d_texture.o)
 .text.sf2d_draw_texture_part_scale
                0x00000000      0x168 c:/devkitPro/libctru/lib\libsf2d.a(sf2d_texture.o)
 .text.sf2d_draw_texture_part_scale_blend
                0x00000000      0x16c c:/devkitPro/libctru/lib\libsf2d.a(sf2d_texture.o)
 .text.sf2d_draw_texture_part_rotate_scale
                0x00000000      0x230 c:/devkitPro/libctru/lib\libsf2d.a(sf2d_texture.o)
 .text.sf2d_draw_texture_part_rotate_scale_blend
                0x00000000      0x234 c:/devkitPro/libctru/lib\libsf2d.a(sf2d_texture.o)
 .text.sf2d_draw_texture_depth
                0x00000000      0x17c c:/devkitPro/libctru/lib\libsf2d.a(sf2d_texture.o)
 .text.sf2d_draw_texture_depth_blend
                0x00000000      0x180 c:/devkitPro/libctru/lib\libsf2d.a(sf2d_texture.o)
 .text.sf2d_draw_quad_uv_current
                0x00000000      0x11c c:/devkitPro/libctru/lib\libsf2d.a(sf2d_texture.o)
 .text.sf2d_draw_quad_uv
                0x00000000       0x5c c:/devkitPro/libctru/lib\libsf2d.a(sf2d_texture.o)
 .text.sf2d_draw_quad_uv_blend
                0x00000000       0x60 c:/devkitPro/libctru/lib\libsf2d.a(sf2d_texture.o)
 .text.sf2d_set_pixel
                0x00000000       0x8c c:/devkitPro/libctru/lib\libsf2d.a(sf2d_texture.o)
 .text.sf2d_get_pixel
                0x00000000       0x8c c:/devkitPro/libctru/lib\libsf2d.a(sf2d_texture.o)
 .text.sf2d_texture_tile32
                0x00000000      0x114 c:/devkitPro/libctru/lib\libsf2d.a(sf2d_texture.o)
 .comment       0x00000000       0x23 c:/devkitPro/libctru/lib\libsf2d.a(sf2d_texture.o)
 .text          0x00000000        0x0 c:/devkitPro/libctru/lib\libsf2d.a(shader.shbin.o)
 .data          0x00000000        0x0 c:/devkitPro/libctru/lib\libsf2d.a(shader.shbin.o)
 .bss           0x00000000        0x0 c:/devkitPro/libctru/lib\libsf2d.a(shader.shbin.o)
 .text          0x00000000        0x0 c:/devkitPro/libctru/lib\libcitro3d.a(attribs.o)
 .data          0x00000000        0x0 c:/devkitPro/libctru/lib\libcitro3d.a(attribs.o)
 .bss           0x00000000        0x0 c:/devkitPro/libctru/lib\libcitro3d.a(attribs.o)
 .text.AttrInfo_AddFixed
                0x00000000       0x5c c:/devkitPro/libctru/lib\libcitro3d.a(attribs.o)
 .text.C3D_SetAttrInfo
                0x00000000       0x54 c:/devkitPro/libctru/lib\libcitro3d.a(attribs.o)
 .comment       0x00000000       0x23 c:/devkitPro/libctru/lib\libcitro3d.a(attribs.o)
 .text          0x00000000        0x0 c:/devkitPro/libctru/lib\libcitro3d.a(base.o)
 .data          0x00000000        0x0 c:/devkitPro/libctru/lib\libcitro3d.a(base.o)
 .text.C3D_SetScissor
                0x00000000       0x4c c:/devkitPro/libctru/lib\libcitro3d.a(base.o)
 .text.C3D_FlushAsync
                0x00000000       0x70 c:/devkitPro/libctru/lib\libcitro3d.a(base.o)
 .text.C3D_GetCmdBufUsage
                0x00000000       0x10 c:/devkitPro/libctru/lib\libcitro3d.a(base.o)
 .text.C3D_FixedAttribGetWritePtr
                0x00000000       0x64 c:/devkitPro/libctru/lib\libcitro3d.a(base.o)
 .comment       0x00000000       0x23 c:/devkitPro/libctru/lib\libcitro3d.a(base.o)
 .text          0x00000000        0x0 c:/devkitPro/libctru/lib\libcitro3d.a(buffers.o)
 .data          0x00000000        0x0 c:/devkitPro/libctru/lib\libcitro3d.a(buffers.o)
 .bss           0x00000000        0x0 c:/devkitPro/libctru/lib\libcitro3d.a(buffers.o)
 .text.C3D_SetBufInfo
                0x00000000       0x40 c:/devkitPro/libctru/lib\libcitro3d.a(buffers.o)
 .comment       0x00000000       0x23 c:/devkitPro/libctru/lib\libcitro3d.a(buffers.o)
 .text          0x00000000        0x0 c:/devkitPro/libctru/lib\libcitro3d.a(drawArrays.o)
 .data          0x00000000        0x0 c:/devkitPro/libctru/lib\libcitro3d.a(drawArrays.o)
 .bss           0x00000000        0x0 c:/devkitPro/libctru/lib\libcitro3d.a(drawArrays.o)
 .comment       0x00000000       0x23 c:/devkitPro/libctru/lib\libcitro3d.a(drawArrays.o)
 .text          0x00000000        0x0 c:/devkitPro/libctru/lib\libcitro3d.a(effect.o)
 .data          0x00000000        0x0 c:/devkitPro/libctru/lib\libcitro3d.a(effect.o)
 .bss           0x00000000        0x0 c:/devkitPro/libctru/lib\libcitro3d.a(effect.o)
 .text.C3D_ColorLogicOp
                0x00000000       0x28 c:/devkitPro/libctru/lib\libcitro3d.a(effect.o)
 .comment       0x00000000       0x23 c:/devkitPro/libctru/lib\libcitro3d.a(effect.o)
 .text          0x00000000        0x0 c:/devkitPro/libctru/lib\libcitro3d.a(immediate.o)
 .data          0x00000000        0x0 c:/devkitPro/libctru/lib\libcitro3d.a(immediate.o)
 .bss           0x00000000        0x0 c:/devkitPro/libctru/lib\libcitro3d.a(immediate.o)
 .text.C3D_ImmDrawBegin
                0x00000000       0xb8 c:/devkitPro/libctru/lib\libcitro3d.a(immediate.o)
 .text.C3D_ImmDrawEnd
                0x00000000       0x74 c:/devkitPro/libctru/lib\libcitro3d.a(immediate.o)
 .comment       0x00000000       0x23 c:/devkitPro/libctru/lib\libcitro3d.a(immediate.o)
 .text          0x00000000        0x0 c:/devkitPro/libctru/lib\libcitro3d.a(renderbuffer.o)
 .data          0x00000000        0x0 c:/devkitPro/libctru/lib\libcitro3d.a(renderbuffer.o)
 .bss           0x00000000        0x0 c:/devkitPro/libctru/lib\libcitro3d.a(renderbuffer.o)
 .comment       0x00000000       0x23 c:/devkitPro/libctru/lib\libcitro3d.a(renderbuffer.o)
 .text          0x00000000        0x0 c:/devkitPro/libctru/lib\libcitro3d.a(renderqueue.o)
 .data          0x00000000        0x0 c:/devkitPro/libctru/lib\libcitro3d.a(renderqueue.o)
 .text.checkRenderQueueInit
                0x00000000       0x2c c:/devkitPro/libctru/lib\libcitro3d.a(renderqueue.o)
 .text.C3D_SafeTextureCopy
                0x00000000       0x98 c:/devkitPro/libctru/lib\libcitro3d.a(renderqueue.o)
 .text.C3D_SafeMemoryFill
                0x00000000       0xb4 c:/devkitPro/libctru/lib\libcitro3d.a(renderqueue.o)
 .comment       0x00000000       0x23 c:/devkitPro/libctru/lib\libcitro3d.a(renderqueue.o)
 .text          0x00000000        0x0 c:/devkitPro/libctru/lib\libcitro3d.a(texenv.o)
 .data          0x00000000        0x0 c:/devkitPro/libctru/lib\libcitro3d.a(texenv.o)
 .bss           0x00000000        0x0 c:/devkitPro/libctru/lib\libcitro3d.a(texenv.o)
 .text.C3D_SetTexEnv
                0x00000000       0x60 c:/devkitPro/libctru/lib\libcitro3d.a(texenv.o)
 .text.C3D_TexEnvBufUpdate
                0x00000000       0x44 c:/devkitPro/libctru/lib\libcitro3d.a(texenv.o)
 .text.C3D_TexEnvBufColor
                0x00000000       0x20 c:/devkitPro/libctru/lib\libcitro3d.a(texenv.o)
 .comment       0x00000000       0x23 c:/devkitPro/libctru/lib\libcitro3d.a(texenv.o)
 .text          0x00000000        0x0 c:/devkitPro/libctru/lib\libcitro3d.a(texture.o)
 .data          0x00000000        0x0 c:/devkitPro/libctru/lib\libcitro3d.a(texture.o)
 .bss           0x00000000        0x0 c:/devkitPro/libctru/lib\libcitro3d.a(texture.o)
 .text.C3D_TexUpload
                0x00000000       0x28 c:/devkitPro/libctru/lib\libcitro3d.a(texture.o)
 .text.C3D_TexSetFilter
                0x00000000       0x24 c:/devkitPro/libctru/lib\libcitro3d.a(texture.o)
 .text.C3D_TexFlush
                0x00000000       0x28 c:/devkitPro/libctru/lib\libcitro3d.a(texture.o)
 .comment       0x00000000       0x23 c:/devkitPro/libctru/lib\libcitro3d.a(texture.o)
 .text          0x00000000        0x0 c:/devkitPro/libctru/lib\libcitro3d.a(uniforms.o)
 .data          0x00000000        0x0 c:/devkitPro/libctru/lib\libcitro3d.a(uniforms.o)
 .comment       0x00000000       0x23 c:/devkitPro/libctru/lib\libcitro3d.a(uniforms.o)
 .text          0x00000000        0x0 c:/devkitPro/libctru/lib\libcitro3d.a(mtx_orthotilt.o)
 .data          0x00000000        0x0 c:/devkitPro/libctru/lib\libcitro3d.a(mtx_orthotilt.o)
 .bss           0x00000000        0x0 c:/devkitPro/libctru/lib\libcitro3d.a(mtx_orthotilt.o)
 .comment       0x00000000       0x23 c:/devkitPro/libctru/lib\libcitro3d.a(mtx_orthotilt.o)
 .text          0x00000000        0x0 c:/devkitPro/libctru/lib\libcitro3d.a(mtx_identity.o)
 .data          0x00000000        0x0 c:/devkitPro/libctru/lib\libcitro3d.a(mtx_identity.o)
 .bss           0x00000000        0x0 c:/devkitPro/libctru/lib\libcitro3d.a(mtx_identity.o)
 .comment       0x00000000       0x23 c:/devkitPro/libctru/lib\libcitro3d.a(mtx_identity.o)
 .text          0x00000000        0x0 c:/devkitPro/libctru/lib\libcitro3d.a(mtx_multiply.o)
 .data          0x00000000        0x0 c:/devkitPro/libctru/lib\libcitro3d.a(mtx_multiply.o)
 .bss           0x00000000        0x0 c:/devkitPro/libctru/lib\libcitro3d.a(mtx_multiply.o)
 .comment       0x00000000       0x23 c:/devkitPro/libctru/lib\libcitro3d.a(mtx_multiply.o)
 .text          0x00000000        0x0 c:/devkitPro/libctru/lib\libctru.a(linear.o)
 .data          0x00000000        0x0 c:/devkitPro/libctru/lib\libctru.a(linear.o)
 .text.linearRealloc
                0x00000000        0x8 c:/devkitPro/libctru/lib\libctru.a(linear.o)
 .text.linearSpaceFree
                0x00000000        0xc c:/devkitPro/libctru/lib\libctru.a(linear.o)
 .comment       0x00000000       0x23 c:/devkitPro/libctru/lib\libctru.a(linear.o)
 .text          0x00000000        0x0 c:/devkitPro/libctru/lib\libctru.a(mem_pool.o)
 .data          0x00000000        0x0 c:/devkitPro/libctru/lib\libctru.a(mem_pool.o)
 .bss           0x00000000        0x0 c:/devkitPro/libctru/lib\libctru.a(mem_pool.o)
 .text._ZN7MemPool12GetFreeSpaceEv
                0x00000000       0x30 c:/devkitPro/libctru/lib\libctru.a(mem_pool.o)
 .comment       0x00000000       0x23 c:/devkitPro/libctru/lib\libctru.a(mem_pool.o)
 .text          0x00000000        0x0 c:/devkitPro/libctru/lib\libctru.a(vram.o)
 .data          0x00000000        0x0 c:/devkitPro/libctru/lib\libctru.a(vram.o)
 .text.vramRealloc
                0x00000000        0x8 c:/devkitPro/libctru/lib\libctru.a(vram.o)
 .text.vramSpaceFree
                0x00000000        0xc c:/devkitPro/libctru/lib\libctru.a(vram.o)
 .comment       0x00000000       0x23 c:/devkitPro/libctru/lib\libctru.a(vram.o)
 .text          0x00000000        0x0 c:/devkitPro/libctru/lib\libctru.a(gfx.o)
 .text.gfxSetScreenFormat
                0x00000000       0x18 c:/devkitPro/libctru/lib\libctru.a(gfx.o)
 .text.gfxGetScreenFormat
                0x00000000       0x18 c:/devkitPro/libctru/lib\libctru.a(gfx.o)
 .text.gfxSetDoubleBuffering
                0x00000000       0x14 c:/devkitPro/libctru/lib\libctru.a(gfx.o)
 .text.gfxFlushBuffers
                0x00000000       0xcc c:/devkitPro/libctru/lib\libctru.a(gfx.o)
 .text.gfxSwapBuffers
                0x00000000       0x20 c:/devkitPro/libctru/lib\libctru.a(gfx.o)
 .text.gfxSwapBuffersGpu
                0x00000000       0x20 c:/devkitPro/libctru/lib\libctru.a(gfx.o)
 .comment       0x00000000       0x23 c:/devkitPro/libctru/lib\libctru.a(gfx.o)
 .text          0x00000000        0x0 c:/devkitPro/libctru/lib\libctru.a(os.o)
 .data          0x00000000        0x0 c:/devkitPro/libctru/lib\libctru.a(os.o)
 .text.osConvertOldLINEARMemToNew
                0x00000000       0x20 c:/devkitPro/libctru/lib\libctru.a(os.o)
 .text.osStrError
                0x00000000       0x20 c:/devkitPro/libctru/lib\libctru.a(os.o)
 .text.osSetSpeedupEnable
                0x00000000       0x10 c:/devkitPro/libctru/lib\libctru.a(os.o)
 .text.usleep   0x00000000       0x18 c:/devkitPro/libctru/lib\libctru.a(os.o)
 .rodata        0x00000000       0x2c c:/devkitPro/libctru/lib\libctru.a(os.o)
 .rodata.str1.4
                0x00000000       0xc4 c:/devkitPro/libctru/lib\libctru.a(os.o)
 .comment       0x00000000       0x23 c:/devkitPro/libctru/lib\libctru.a(os.o)
 .text          0x00000000        0x0 c:/devkitPro/libctru/lib\libctru.a(gpu.o)
 .data          0x00000000        0x0 c:/devkitPro/libctru/lib\libctru.a(gpu.o)
 .bss           0x00000000        0x0 c:/devkitPro/libctru/lib\libctru.a(gpu.o)
 .text.GPUCMD_SetBufferOffset
                0x00000000       0x10 c:/devkitPro/libctru/lib\libctru.a(gpu.o)
 .text.GPUCMD_AddRawCommands
                0x00000000       0x4c c:/devkitPro/libctru/lib\libctru.a(gpu.o)
 .text.GPUCMD_Run
                0x00000000       0x24 c:/devkitPro/libctru/lib\libctru.a(gpu.o)
 .text.GPUCMD_FlushAndRun
                0x00000000       0x68 c:/devkitPro/libctru/lib\libctru.a(gpu.o)
 .text.f32tof16
                0x00000000       0x40 c:/devkitPro/libctru/lib\libctru.a(gpu.o)
 .text.f32tof20
                0x00000000       0x40 c:/devkitPro/libctru/lib\libctru.a(gpu.o)
 .comment       0x00000000       0x23 c:/devkitPro/libctru/lib\libctru.a(gpu.o)
 .text          0x00000000        0x0 c:/devkitPro/libctru/lib\libctru.a(gx.o)
 .data          0x00000000        0x0 c:/devkitPro/libctru/lib\libctru.a(gx.o)
 .bss           0x00000000        0x0 c:/devkitPro/libctru/lib\libctru.a(gx.o)
 .text.GX_RequestDma
                0x00000000       0x44 c:/devkitPro/libctru/lib\libctru.a(gx.o)
 .text.GX_TextureCopy
                0x00000000       0x54 c:/devkitPro/libctru/lib\libctru.a(gx.o)
 .comment       0x00000000       0x23 c:/devkitPro/libctru/lib\libctru.a(gx.o)
 .text          0x00000000        0x0 c:/devkitPro/libctru/lib\libctru.a(shaderProgram.o)
 .data          0x00000000        0x0 c:/devkitPro/libctru/lib\libctru.a(shaderProgram.o)
 .bss           0x00000000        0x0 c:/devkitPro/libctru/lib\libctru.a(shaderProgram.o)
 .text.shaderInstanceSetBool
                0x00000000       0x54 c:/devkitPro/libctru/lib\libctru.a(shaderProgram.o)
 .text.shaderInstanceGetBool
                0x00000000       0x48 c:/devkitPro/libctru/lib\libctru.a(shaderProgram.o)
 .text.shaderProgramSetGsh
                0x00000000       0x94 c:/devkitPro/libctru/lib\libctru.a(shaderProgram.o)
 .text.shaderProgramSetGshInputPermutation
                0x00000000       0x28 c:/devkitPro/libctru/lib\libctru.a(shaderProgram.o)
 .text.shaderProgramSetGshMode
                0x00000000       0x2c c:/devkitPro/libctru/lib\libctru.a(shaderProgram.o)
 .text.shaderProgramUse
                0x00000000      0x12c c:/devkitPro/libctru/lib\libctru.a(shaderProgram.o)
 .comment       0x00000000       0x23 c:/devkitPro/libctru/lib\libctru.a(shaderProgram.o)
 .text          0x00000000        0x0 c:/devkitPro/libctru/lib\libctru.a(shbin.o)
 .data          0x00000000        0x0 c:/devkitPro/libctru/lib\libctru.a(shbin.o)
 .bss           0x00000000        0x0 c:/devkitPro/libctru/lib\libctru.a(shbin.o)
 .comment       0x00000000       0x23 c:/devkitPro/libctru/lib\libctru.a(shbin.o)
 .text          0x00000000        0x0 c:/devkitPro/libctru/lib\libctru.a(apt.o)
 .text.aptIsSleepAllowed
                0x00000000       0x18 c:/devkitPro/libctru/lib\libctru.a(apt.o)
 .text.aptSetMessageCallback
                0x00000000       0x14 c:/devkitPro/libctru/lib\libctru.a(apt.o)
 .text.APT_GetLockHandle
                0x00000000       0x38 c:/devkitPro/libctru/lib\libctru.a(apt.o)
 .text.APT_Initialize
                0x00000000       0x54 c:/devkitPro/libctru/lib\libctru.a(apt.o)
 .text.APT_Finalize
                0x00000000       0x28 c:/devkitPro/libctru/lib\libctru.a(apt.o)
 .text.APT_HardwareResetAsync
                0x00000000       0x20 c:/devkitPro/libctru/lib\libctru.a(apt.o)
 .text.APT_Enable
                0x00000000       0x28 c:/devkitPro/libctru/lib\libctru.a(apt.o)
 .text.APT_GetAppletManInfo
                0x00000000       0x70 c:/devkitPro/libctru/lib\libctru.a(apt.o)
 .text.APT_GetAppletInfo
                0x00000000       0x98 c:/devkitPro/libctru/lib\libctru.a(apt.o)
 .text.APT_GetAppletProgramInfo
                0x00000000       0x3c c:/devkitPro/libctru/lib\libctru.a(apt.o)
 .text.APT_GetProgramID
                0x00000000       0x3c c:/devkitPro/libctru/lib\libctru.a(apt.o)
 .text.APT_IsRegistered
                0x00000000       0x44 c:/devkitPro/libctru/lib\libctru.a(apt.o)
 .text.APT_PrepareToJumpToHomeMenu
                0x00000000       0x20 c:/devkitPro/libctru/lib\libctru.a(apt.o)
 .text.APT_JumpToHomeMenu
                0x00000000       0x44 c:/devkitPro/libctru/lib\libctru.a(apt.o)
 .text.APT_PrepareToJumpToApplication
                0x00000000       0x28 c:/devkitPro/libctru/lib\libctru.a(apt.o)
 .text.APT_JumpToApplication
                0x00000000       0x44 c:/devkitPro/libctru/lib\libctru.a(apt.o)
 .text.APT_NotifyToWait
                0x00000000       0x28 c:/devkitPro/libctru/lib\libctru.a(apt.o)
 .text.APT_SleepIfShellClosed
                0x00000000       0x30 c:/devkitPro/libctru/lib\libctru.a(apt.o)
 .text.APT_TryLockTransition
                0x00000000       0x30 c:/devkitPro/libctru/lib\libctru.a(apt.o)
 .text.APT_UnlockTransition
                0x00000000       0x30 c:/devkitPro/libctru/lib\libctru.a(apt.o)
 .text.APT_SendParameter
                0x00000000       0x58 c:/devkitPro/libctru/lib\libctru.a(apt.o)
 .text.aptLaunchLibraryApplet
                0x00000000       0xdc c:/devkitPro/libctru/lib\libctru.a(apt.o)
 .text.APT_SendCaptureBufferInfo
                0x00000000       0x3c c:/devkitPro/libctru/lib\libctru.a(apt.o)
 .text.APT_ReplySleepQuery
                0x00000000       0x2c c:/devkitPro/libctru/lib\libctru.a(apt.o)
 .text.APT_ReplySleepNotificationComplete
                0x00000000       0x28 c:/devkitPro/libctru/lib\libctru.a(apt.o)
 .text.APT_PrepareToCloseApplication
                0x00000000       0x28 c:/devkitPro/libctru/lib\libctru.a(apt.o)
 .text.APT_CloseApplication
                0x00000000       0x44 c:/devkitPro/libctru/lib\libctru.a(apt.o)
 .text.APT_SetAppCpuTimeLimit
                0x00000000       0x30 c:/devkitPro/libctru/lib\libctru.a(apt.o)
 .text.APT_GetAppCpuTimeLimit
                0x00000000       0x3c c:/devkitPro/libctru/lib\libctru.a(apt.o)
 .text.APT_PrepareToDoApplicationJump
                0x00000000       0x38 c:/devkitPro/libctru/lib\libctru.a(apt.o)
 .text.APT_DoApplicationJump
                0x00000000       0x64 c:/devkitPro/libctru/lib\libctru.a(apt.o)
 .text.APT_PrepareToStartLibraryApplet
                0x00000000       0x28 c:/devkitPro/libctru/lib\libctru.a(apt.o)
 .text.APT_StartLibraryApplet
                0x00000000       0x48 c:/devkitPro/libctru/lib\libctru.a(apt.o)
 .text.APT_PrepareToStartSystemApplet
                0x00000000       0x28 c:/devkitPro/libctru/lib\libctru.a(apt.o)
 .text.APT_StartSystemApplet
                0x00000000       0x48 c:/devkitPro/libctru/lib\libctru.a(apt.o)
 .text.APT_GetSharedFont
                0x00000000       0x4c c:/devkitPro/libctru/lib\libctru.a(apt.o)
 .comment       0x00000000       0x23 c:/devkitPro/libctru/lib\libctru.a(apt.o)
 .text          0x00000000        0x0 c:/devkitPro/libctru/lib\libctru.a(gspgpu.o)
 .text.GSPGPU_WriteHWRegs
                0x00000000       0x68 c:/devkitPro/libctru/lib\libctru.a(gspgpu.o)
 .text.GSPGPU_WriteHWRegsWithMask
                0x00000000       0x80 c:/devkitPro/libctru/lib\libctru.a(gspgpu.o)
 .text.GSPGPU_ReadHWRegs
                0x00000000       0x68 c:/devkitPro/libctru/lib\libctru.a(gspgpu.o)
 .text.GSPGPU_InvalidateDataCache
                0x00000000       0x4c c:/devkitPro/libctru/lib\libctru.a(gspgpu.o)
 .text.GSPGPU_TriggerCmdReqQueue
                0x00000000       0x2c c:/devkitPro/libctru/lib\libctru.a(gspgpu.o)
 .comment       0x00000000       0x23 c:/devkitPro/libctru/lib\libctru.a(gspgpu.o)
 .text          0x00000000        0x0 c:/devkitPro/libctru/lib\libctru.a(hid.o)
 .data          0x00000000        0x0 c:/devkitPro/libctru/lib\libctru.a(hid.o)
 .text.hidWaitForEvent
                0x00000000       0x58 c:/devkitPro/libctru/lib\libctru.a(hid.o)
 .text.hidCheckSectionUpdateTime
                0x00000000       0x38 c:/devkitPro/libctru/lib\libctru.a(hid.o)
 .text.hidKeysUp
                0x00000000       0x10 c:/devkitPro/libctru/lib\libctru.a(hid.o)
 .text.hidCircleRead
                0x00000000       0x18 c:/devkitPro/libctru/lib\libctru.a(hid.o)
 .text.hidAccelRead
                0x00000000       0x20 c:/devkitPro/libctru/lib\libctru.a(hid.o)
 .text.hidGyroRead
                0x00000000       0x20 c:/devkitPro/libctru/lib\libctru.a(hid.o)
 .text.HIDUSER_EnableAccelerometer
                0x00000000       0x2c c:/devkitPro/libctru/lib\libctru.a(hid.o)
 .text.HIDUSER_DisableAccelerometer
                0x00000000       0x2c c:/devkitPro/libctru/lib\libctru.a(hid.o)
 .text.HIDUSER_EnableGyroscope
                0x00000000       0x2c c:/devkitPro/libctru/lib\libctru.a(hid.o)
 .text.HIDUSER_DisableGyroscope
                0x00000000       0x2c c:/devkitPro/libctru/lib\libctru.a(hid.o)
 .text.HIDUSER_GetGyroscopeRawToDpsCoefficient
                0x00000000       0x38 c:/devkitPro/libctru/lib\libctru.a(hid.o)
 .text.HIDUSER_GetSoundVolume
                0x00000000       0x38 c:/devkitPro/libctru/lib\libctru.a(hid.o)
 .comment       0x00000000       0x23 c:/devkitPro/libctru/lib\libctru.a(hid.o)
 .text          0x00000000        0x0 c:/devkitPro/libctru/lib\libctru.a(irrst.o)
 .data          0x00000000        0x0 c:/devkitPro/libctru/lib\libctru.a(irrst.o)
 .text.irrstWaitForEvent
                0x00000000       0x4c c:/devkitPro/libctru/lib\libctru.a(irrst.o)
 .text.irrstCheckSectionUpdateTime
                0x00000000       0x38 c:/devkitPro/libctru/lib\libctru.a(irrst.o)
 .text.irrstCstickRead
                0x00000000       0x18 c:/devkitPro/libctru/lib\libctru.a(irrst.o)
 .text.IRRST_Initialize
                0x00000000       0x38 c:/devkitPro/libctru/lib\libctru.a(irrst.o)
 .comment       0x00000000       0x23 c:/devkitPro/libctru/lib\libctru.a(irrst.o)
 .text          0x00000000        0x0 c:/devkitPro/libctru/lib\libctru.a(ptmsysm.o)
 .data          0x00000000        0x0 c:/devkitPro/libctru/lib\libctru.a(ptmsysm.o)
 .comment       0x00000000       0x23 c:/devkitPro/libctru/lib\libctru.a(ptmsysm.o)
 .text          0x00000000        0x0 c:/devkitPro/libctru/lib\libctru.a(rbtree_find.o)
 .data          0x00000000        0x0 c:/devkitPro/libctru/lib\libctru.a(rbtree_find.o)
 .bss           0x00000000        0x0 c:/devkitPro/libctru/lib\libctru.a(rbtree_find.o)
 .comment       0x00000000       0x23 c:/devkitPro/libctru/lib\libctru.a(rbtree_find.o)
 .text          0x00000000        0x0 c:/devkitPro/libctru/lib\libctru.a(rbtree_init.o)
 .data          0x00000000        0x0 c:/devkitPro/libctru/lib\libctru.a(rbtree_init.o)
 .bss           0x00000000        0x0 c:/devkitPro/libctru/lib\libctru.a(rbtree_init.o)
 .comment       0x00000000       0x23 c:/devkitPro/libctru/lib\libctru.a(rbtree_init.o)
 .text          0x00000000        0x0 c:/devkitPro/libctru/lib\libctru.a(rbtree_insert.o)
 .data          0x00000000        0x0 c:/devkitPro/libctru/lib\libctru.a(rbtree_insert.o)
 .bss           0x00000000        0x0 c:/devkitPro/libctru/lib\libctru.a(rbtree_insert.o)
 .text.rbtree_insert_multi
                0x00000000        0x8 c:/devkitPro/libctru/lib\libctru.a(rbtree_insert.o)
 .comment       0x00000000       0x23 c:/devkitPro/libctru/lib\libctru.a(rbtree_insert.o)
 .text          0x00000000        0x0 c:/devkitPro/libctru/lib\libctru.a(rbtree_remove.o)
 .data          0x00000000        0x0 c:/devkitPro/libctru/lib\libctru.a(rbtree_remove.o)
 .bss           0x00000000        0x0 c:/devkitPro/libctru/lib\libctru.a(rbtree_remove.o)
 .comment       0x00000000       0x23 c:/devkitPro/libctru/lib\libctru.a(rbtree_remove.o)
 .text          0x00000000        0x0 c:/devkitPro/libctru/lib\libctru.a(rbtree_rotate.o)
 .data          0x00000000        0x0 c:/devkitPro/libctru/lib\libctru.a(rbtree_rotate.o)
 .bss           0x00000000        0x0 c:/devkitPro/libctru/lib\libctru.a(rbtree_rotate.o)
 .comment       0x00000000       0x23 c:/devkitPro/libctru/lib\libctru.a(rbtree_rotate.o)
 .text          0x00000000        0x0 c:/devkitPro/libctru/lib\libctru.a(allocateHeaps.o)
 .data          0x00000000        0x0 c:/devkitPro/libctru/lib\libctru.a(allocateHeaps.o)
 .bss           0x00000000        0x0 c:/devkitPro/libctru/lib\libctru.a(allocateHeaps.o)
 .comment       0x00000000       0x23 c:/devkitPro/libctru/lib\libctru.a(allocateHeaps.o)
 .text          0x00000000        0x0 c:/devkitPro/libctru/lib\libctru.a(initArgv.o)
 .data          0x00000000        0x0 c:/devkitPro/libctru/lib\libctru.a(initArgv.o)
 .bss           0x00000000        0x0 c:/devkitPro/libctru/lib\libctru.a(initArgv.o)
 .comment       0x00000000       0x23 c:/devkitPro/libctru/lib\libctru.a(initArgv.o)
 .text          0x00000000        0x0 c:/devkitPro/libctru/lib\libctru.a(initSystem.o)
 .data          0x00000000        0x0 c:/devkitPro/libctru/lib\libctru.a(initSystem.o)
 .bss           0x00000000        0x0 c:/devkitPro/libctru/lib\libctru.a(initSystem.o)
 .comment       0x00000000       0x23 c:/devkitPro/libctru/lib\libctru.a(initSystem.o)
 .text          0x00000000        0x0 c:/devkitPro/libctru/lib\libctru.a(syscalls.o)
 .data          0x00000000        0x0 c:/devkitPro/libctru/lib\libctru.a(syscalls.o)
 .bss           0x00000000        0x0 c:/devkitPro/libctru/lib\libctru.a(syscalls.o)
 .comment       0x00000000       0x23 c:/devkitPro/libctru/lib\libctru.a(syscalls.o)
 .text          0x00000000        0x0 c:/devkitPro/libctru/lib\libctru.a(svc.o)
 .data          0x00000000        0x0 c:/devkitPro/libctru/lib\libctru.a(svc.o)
 .bss           0x00000000        0x0 c:/devkitPro/libctru/lib\libctru.a(svc.o)
 .text.svcQueryMemory
                0x00000000       0x30 c:/devkitPro/libctru/lib\libctru.a(svc.o)
 .text.svcSetProcessAffinityMask
                0x00000000        0x8 c:/devkitPro/libctru/lib\libctru.a(svc.o)
 .text.svcSetProcessIdealProcessor
                0x00000000        0x8 c:/devkitPro/libctru/lib\libctru.a(svc.o)
 .text.svcGetThreadPriority
                0x00000000       0x14 c:/devkitPro/libctru/lib\libctru.a(svc.o)
 .text.svcSetThreadPriority
                0x00000000        0x8 c:/devkitPro/libctru/lib\libctru.a(svc.o)
 .text.svcGetThreadAffinityMask
                0x00000000        0x8 c:/devkitPro/libctru/lib\libctru.a(svc.o)
 .text.svcSetThreadAffinityMask
                0x00000000        0x8 c:/devkitPro/libctru/lib\libctru.a(svc.o)
 .text.svcGetThreadIdealProcessor
                0x00000000       0x14 c:/devkitPro/libctru/lib\libctru.a(svc.o)
 .text.svcSetThreadIdealProcessor
                0x00000000        0x8 c:/devkitPro/libctru/lib\libctru.a(svc.o)
 .text.svcGetProcessorID
                0x00000000        0x8 c:/devkitPro/libctru/lib\libctru.a(svc.o)
 .text.svcRun   0x00000000       0x24 c:/devkitPro/libctru/lib\libctru.a(svc.o)
 .text.svcCreateMutex
                0x00000000       0x14 c:/devkitPro/libctru/lib\libctru.a(svc.o)
 .text.svcCreateSemaphore
                0x00000000       0x14 c:/devkitPro/libctru/lib\libctru.a(svc.o)
 .text.svcReleaseSemaphore
                0x00000000       0x14 c:/devkitPro/libctru/lib\libctru.a(svc.o)
 .text.svcCreateTimer
                0x00000000       0x14 c:/devkitPro/libctru/lib\libctru.a(svc.o)
 .text.svcSetTimer
                0x00000000       0x18 c:/devkitPro/libctru/lib\libctru.a(svc.o)
 .text.svcCancelTimer
                0x00000000        0x8 c:/devkitPro/libctru/lib\libctru.a(svc.o)
 .text.svcClearTimer
                0x00000000        0x8 c:/devkitPro/libctru/lib\libctru.a(svc.o)
 .text.svcCreateMemoryBlock
                0x00000000       0x18 c:/devkitPro/libctru/lib\libctru.a(svc.o)
 .text.svcGetProcessInfo
                0x00000000       0x18 c:/devkitPro/libctru/lib\libctru.a(svc.o)
 .text.svcGetThreadInfo
                0x00000000       0x18 c:/devkitPro/libctru/lib\libctru.a(svc.o)
 .text.svcOpenProcess
                0x00000000       0x14 c:/devkitPro/libctru/lib\libctru.a(svc.o)
 .text.svcOpenThread
                0x00000000       0x14 c:/devkitPro/libctru/lib\libctru.a(svc.o)
 .text.svcGetProcessId
                0x00000000       0x14 c:/devkitPro/libctru/lib\libctru.a(svc.o)
 .text.svcGetProcessIdOfThread
                0x00000000       0x14 c:/devkitPro/libctru/lib\libctru.a(svc.o)
 .text.svcGetThreadId
                0x00000000       0x14 c:/devkitPro/libctru/lib\libctru.a(svc.o)
 .text.svcGetResourceLimit
                0x00000000       0x14 c:/devkitPro/libctru/lib\libctru.a(svc.o)
 .text.svcGetResourceLimitLimitValues
                0x00000000        0x8 c:/devkitPro/libctru/lib\libctru.a(svc.o)
 .text.svcGetResourceLimitCurrentValues
                0x00000000        0x8 c:/devkitPro/libctru/lib\libctru.a(svc.o)
 .text.svcOutputDebugString
                0x00000000        0x8 c:/devkitPro/libctru/lib\libctru.a(svc.o)
 .text.svcCreatePort
                0x00000000       0x20 c:/devkitPro/libctru/lib\libctru.a(svc.o)
 .text.svcAcceptSession
                0x00000000       0x18 c:/devkitPro/libctru/lib\libctru.a(svc.o)
 .text.svcReplyAndReceive
                0x00000000       0x18 c:/devkitPro/libctru/lib\libctru.a(svc.o)
 .text.svcBindInterrupt
                0x00000000        0x8 c:/devkitPro/libctru/lib\libctru.a(svc.o)
 .text.svcUnbindInterrupt
                0x00000000        0x8 c:/devkitPro/libctru/lib\libctru.a(svc.o)
 .text.svcInvalidateProcessDataCache
                0x00000000        0x8 c:/devkitPro/libctru/lib\libctru.a(svc.o)
 .text.svcFlushProcessDataCache
                0x00000000        0x8 c:/devkitPro/libctru/lib\libctru.a(svc.o)
 .text.svcStartInterProcessDma
                0x00000000       0x20 c:/devkitPro/libctru/lib\libctru.a(svc.o)
 .text.svcStopDma
                0x00000000        0x8 c:/devkitPro/libctru/lib\libctru.a(svc.o)
 .text.svcGetDmaState
                0x00000000       0x14 c:/devkitPro/libctru/lib\libctru.a(svc.o)
 .text.svcDebugActiveProcess
                0x00000000       0x14 c:/devkitPro/libctru/lib\libctru.a(svc.o)
 .text.svcBreakDebugProcess
                0x00000000        0x8 c:/devkitPro/libctru/lib\libctru.a(svc.o)
 .text.svcTerminateDebugProcess
                0x00000000        0x8 c:/devkitPro/libctru/lib\libctru.a(svc.o)
 .text.svcGetProcessDebugEvent
                0x00000000        0x8 c:/devkitPro/libctru/lib\libctru.a(svc.o)
 .text.svcContinueDebugEvent
                0x00000000        0x8 c:/devkitPro/libctru/lib\libctru.a(svc.o)
 .text.svcGetProcessList
                0x00000000       0x20 c:/devkitPro/libctru/lib\libctru.a(svc.o)
 .text.svcReadProcessMemory
                0x00000000        0x8 c:/devkitPro/libctru/lib\libctru.a(svc.o)
 .text.svcWriteProcessMemory
                0x00000000        0x8 c:/devkitPro/libctru/lib\libctru.a(svc.o)
 .text.svcControlProcessMemory
                0x00000000       0x18 c:/devkitPro/libctru/lib\libctru.a(svc.o)
 .text.svcMapProcessMemory
                0x00000000        0x8 c:/devkitPro/libctru/lib\libctru.a(svc.o)
 .text.svcUnmapProcessMemory
                0x00000000        0x8 c:/devkitPro/libctru/lib\libctru.a(svc.o)
 .text.svcCreateCodeSet
                0x00000000       0x1c c:/devkitPro/libctru/lib\libctru.a(svc.o)
 .text.svcCreateProcess
                0x00000000       0x18 c:/devkitPro/libctru/lib\libctru.a(svc.o)
 .text.svcTerminateProcess
                0x00000000        0x8 c:/devkitPro/libctru/lib\libctru.a(svc.o)
 .text.svcBackdoor
                0x00000000        0x8 c:/devkitPro/libctru/lib\libctru.a(svc.o)
 .text.svcKernelSetState
                0x00000000        0x8 c:/devkitPro/libctru/lib\libctru.a(svc.o)
 .text.svcQueryProcessMemory
                0x00000000       0x24 c:/devkitPro/libctru/lib\libctru.a(svc.o)
 .text          0x00000000        0x0 c:/devkitPro/libctru/lib\libctru.a(mappable.o)
 .data          0x00000000        0x0 c:/devkitPro/libctru/lib\libctru.a(mappable.o)
 .text.mappableSpaceFree
                0x00000000        0xc c:/devkitPro/libctru/lib\libctru.a(mappable.o)
 .comment       0x00000000       0x23 c:/devkitPro/libctru/lib\libctru.a(mappable.o)
 .text          0x00000000        0x0 c:/devkitPro/libctru/lib\libctru.a(env.o)
 .data          0x00000000        0x0 c:/devkitPro/libctru/lib\libctru.a(env.o)
 .bss           0x00000000        0x0 c:/devkitPro/libctru/lib\libctru.a(env.o)
 .comment       0x00000000       0x23 c:/devkitPro/libctru/lib\libctru.a(env.o)
 .text          0x00000000        0x0 c:/devkitPro/libctru/lib\libctru.a(srv.o)
 .data          0x00000000        0x0 c:/devkitPro/libctru/lib\libctru.a(srv.o)
 .text.srvGetSessionHandle
                0x00000000        0xc c:/devkitPro/libctru/lib\libctru.a(srv.o)
 .text.srvEnableNotification
                0x00000000       0x40 c:/devkitPro/libctru/lib\libctru.a(srv.o)
 .text.srvRegisterService
                0x00000000       0x68 c:/devkitPro/libctru/lib\libctru.a(srv.o)
 .text.srvUnregisterService
                0x00000000       0x50 c:/devkitPro/libctru/lib\libctru.a(srv.o)
 .text.srvRegisterPort
                0x00000000       0x60 c:/devkitPro/libctru/lib\libctru.a(srv.o)
 .text.srvUnregisterPort
                0x00000000       0x50 c:/devkitPro/libctru/lib\libctru.a(srv.o)
 .text.srvGetPort
                0x00000000       0x68 c:/devkitPro/libctru/lib\libctru.a(srv.o)
 .text.srvSubscribe
                0x00000000       0x34 c:/devkitPro/libctru/lib\libctru.a(srv.o)
 .text.srvUnsubscribe
                0x00000000       0x34 c:/devkitPro/libctru/lib\libctru.a(srv.o)
 .text.srvReceiveNotification
                0x00000000       0x40 c:/devkitPro/libctru/lib\libctru.a(srv.o)
 .text.srvPublishToSubscriber
                0x00000000       0x38 c:/devkitPro/libctru/lib\libctru.a(srv.o)
 .text.srvPublishAndGetSubscriber
                0x00000000       0x68 c:/devkitPro/libctru/lib\libctru.a(srv.o)
 .text.srvIsServiceRegistered
                0x00000000       0x6c c:/devkitPro/libctru/lib\libctru.a(srv.o)
 .comment       0x00000000       0x23 c:/devkitPro/libctru/lib\libctru.a(srv.o)
 .text          0x00000000        0x0 c:/devkitPro/libctru/lib\libctru.a(synchronization.o)
 .data          0x00000000        0x0 c:/devkitPro/libctru/lib\libctru.a(synchronization.o)
 .text.LightEvent_Pulse
                0x00000000       0x74 c:/devkitPro/libctru/lib\libctru.a(synchronization.o)
 .text.LightEvent_TryWait
                0x00000000       0x40 c:/devkitPro/libctru/lib\libctru.a(synchronization.o)
 .comment       0x00000000       0x23 c:/devkitPro/libctru/lib\libctru.a(synchronization.o)
 .text          0x00000000        0x0 c:/devkitPro/libctru/lib\libctru.a(thread.o)
 .data          0x00000000        0x0 c:/devkitPro/libctru/lib\libctru.a(thread.o)
 .bss           0x00000000        0x0 c:/devkitPro/libctru/lib\libctru.a(thread.o)
 .text.threadGetHandle
                0x00000000       0x24 c:/devkitPro/libctru/lib\libctru.a(thread.o)
 .text.threadGetExitCode
                0x00000000       0x20 c:/devkitPro/libctru/lib\libctru.a(thread.o)
 .text.threadFree
                0x00000000       0x30 c:/devkitPro/libctru/lib\libctru.a(thread.o)
 .text.threadGetCurrent
                0x00000000       0x30 c:/devkitPro/libctru/lib\libctru.a(thread.o)
 .comment       0x00000000       0x23 c:/devkitPro/libctru/lib\libctru.a(thread.o)
 .text          0x00000000        0x0 c:/devkitPro/libctru/lib\libctru.a(rbtree_iterator.o)
 .data          0x00000000        0x0 c:/devkitPro/libctru/lib\libctru.a(rbtree_iterator.o)
 .bss           0x00000000        0x0 c:/devkitPro/libctru/lib\libctru.a(rbtree_iterator.o)
 .text.rbtree_node_prev
                0x00000000       0x8c c:/devkitPro/libctru/lib\libctru.a(rbtree_iterator.o)
 .comment       0x00000000       0x23 c:/devkitPro/libctru/lib\libctru.a(rbtree_iterator.o)
 .text          0x00000000        0x0 c:/devkitPro/libctru/lib\libctru.a(appExit.o)
 .data          0x00000000        0x0 c:/devkitPro/libctru/lib\libctru.a(appExit.o)
 .bss           0x00000000        0x0 c:/devkitPro/libctru/lib\libctru.a(appExit.o)
 .comment       0x00000000       0x23 c:/devkitPro/libctru/lib\libctru.a(appExit.o)
 .text          0x00000000        0x0 c:/devkitPro/libctru/lib\libctru.a(appInit.o)
 .data          0x00000000        0x0 c:/devkitPro/libctru/lib\libctru.a(appInit.o)
 .bss           0x00000000        0x0 c:/devkitPro/libctru/lib\libctru.a(appInit.o)
 .comment       0x00000000       0x23 c:/devkitPro/libctru/lib\libctru.a(appInit.o)
 .text          0x00000000        0x0 c:/devkitPro/libctru/lib\libctru.a(ctru_exit.o)
 .data          0x00000000        0x0 c:/devkitPro/libctru/lib\libctru.a(ctru_exit.o)
 .bss           0x00000000        0x0 c:/devkitPro/libctru/lib\libctru.a(ctru_exit.o)
 .comment       0x00000000       0x23 c:/devkitPro/libctru/lib\libctru.a(ctru_exit.o)
 .text          0x00000000        0x0 c:/devkitPro/libctru/lib\libctru.a(sdmc_dev.o)
 .text.sdmc_write
                0x00000000       0xbc c:/devkitPro/libctru/lib\libctru.a(sdmc_dev.o)
 .text.sdmcWriteSafe
                0x00000000       0x24 c:/devkitPro/libctru/lib\libctru.a(sdmc_dev.o)
 .text.sdmc_getmtime
                0x00000000       0xd8 c:/devkitPro/libctru/lib\libctru.a(sdmc_dev.o)
 .comment       0x00000000       0x23 c:/devkitPro/libctru/lib\libctru.a(sdmc_dev.o)
 .text          0x00000000        0x0 c:/devkitPro/libctru/lib\libctru.a(fs.o)
 .data          0x00000000        0x0 c:/devkitPro/libctru/lib\libctru.a(fs.o)
 .text.fsUseSession
                0x00000000       0x18 c:/devkitPro/libctru/lib\libctru.a(fs.o)
 .text.fsEndUseSession
                0x00000000       0x10 c:/devkitPro/libctru/lib\libctru.a(fs.o)
 .text.fsMakePath
                0x00000000       0x88 c:/devkitPro/libctru/lib\libctru.a(fs.o)
 .text.fsGetSessionHandle
                0x00000000        0xc c:/devkitPro/libctru/lib\libctru.a(fs.o)
 .text.FSUSER_Control
                0x00000000       0x74 c:/devkitPro/libctru/lib\libctru.a(fs.o)
 .text.FSUSER_Initialize
                0x00000000       0x2c c:/devkitPro/libctru/lib\libctru.a(fs.o)
 .text.FSUSER_OpenFileDirectly
                0x00000000       0xd4 c:/devkitPro/libctru/lib\libctru.a(fs.o)
 .text.FSUSER_DeleteDirectoryRecursively
                0x00000000       0xa4 c:/devkitPro/libctru/lib\libctru.a(fs.o)
 .text.FSUSER_ControlArchive
                0x00000000       0x9c c:/devkitPro/libctru/lib\libctru.a(fs.o)
 .text.FSUSER_GetFreeBytes
                0x00000000       0x84 c:/devkitPro/libctru/lib\libctru.a(fs.o)
 .text.FSUSER_GetCardType
                0x00000000       0x58 c:/devkitPro/libctru/lib\libctru.a(fs.o)
 .text.FSUSER_GetNandArchiveResource
                0x00000000       0x78 c:/devkitPro/libctru/lib\libctru.a(fs.o)
 .text.FSUSER_GetSdmcFatfsError
                0x00000000       0x58 c:/devkitPro/libctru/lib\libctru.a(fs.o)
 .text.FSUSER_IsSdmcDetected
                0x00000000       0x64 c:/devkitPro/libctru/lib\libctru.a(fs.o)
 .text.FSUSER_GetSdmcCid
                0x00000000       0x58 c:/devkitPro/libctru/lib\libctru.a(fs.o)
 .text.FSUSER_GetNandCid
                0x00000000       0x58 c:/devkitPro/libctru/lib\libctru.a(fs.o)
 .text.FSUSER_GetSdmcSpeedInfo
                0x00000000       0x58 c:/devkitPro/libctru/lib\libctru.a(fs.o)
 .text.FSUSER_GetNandSpeedInfo
                0x00000000       0x58 c:/devkitPro/libctru/lib\libctru.a(fs.o)
 .text.FSUSER_GetSdmcLog
                0x00000000       0x58 c:/devkitPro/libctru/lib\libctru.a(fs.o)
 .text.FSUSER_GetNandLog
                0x00000000       0x58 c:/devkitPro/libctru/lib\libctru.a(fs.o)
 .text.FSUSER_ClearSdmcLog
                0x00000000       0x44 c:/devkitPro/libctru/lib\libctru.a(fs.o)
 .text.FSUSER_ClearNandLog
                0x00000000       0x40 c:/devkitPro/libctru/lib\libctru.a(fs.o)
 .text.FSUSER_CardSlotIsInserted
                0x00000000       0x64 c:/devkitPro/libctru/lib\libctru.a(fs.o)
 .text.FSUSER_CardSlotPowerOn
                0x00000000       0x64 c:/devkitPro/libctru/lib\libctru.a(fs.o)
 .text.FSUSER_CardSlotPowerOff
                0x00000000       0x64 c:/devkitPro/libctru/lib\libctru.a(fs.o)
 .text.FSUSER_CardSlotGetCardIFPowerStatus
                0x00000000       0x64 c:/devkitPro/libctru/lib\libctru.a(fs.o)
 .text.FSUSER_CardNorDirectCommand
                0x00000000       0x48 c:/devkitPro/libctru/lib\libctru.a(fs.o)
 .text.FSUSER_CardNorDirectCommandWithAddress
                0x00000000       0x4c c:/devkitPro/libctru/lib\libctru.a(fs.o)
 .text.FSUSER_CardNorDirectRead
                0x00000000       0x5c c:/devkitPro/libctru/lib\libctru.a(fs.o)
 .text.FSUSER_CardNorDirectReadWithAddress
                0x00000000       0x60 c:/devkitPro/libctru/lib\libctru.a(fs.o)
 .text.FSUSER_CardNorDirectWrite
                0x00000000       0x5c c:/devkitPro/libctru/lib\libctru.a(fs.o)
 .text.FSUSER_CardNorDirectWriteWithAddress
                0x00000000       0x60 c:/devkitPro/libctru/lib\libctru.a(fs.o)
 .text.FSUSER_CardNorDirectRead_4xIO
                0x00000000       0x60 c:/devkitPro/libctru/lib\libctru.a(fs.o)
 .text.FSUSER_CardNorDirectCpuWriteWithoutVerify
                0x00000000       0x5c c:/devkitPro/libctru/lib\libctru.a(fs.o)
 .text.FSUSER_CardNorDirectSectorEraseWithoutVerify
                0x00000000       0x48 c:/devkitPro/libctru/lib\libctru.a(fs.o)
 .text.FSUSER_GetProductInfo
                0x00000000       0x84 c:/devkitPro/libctru/lib\libctru.a(fs.o)
 .text.FSUSER_GetProgramLaunchInfo
                0x00000000       0x7c c:/devkitPro/libctru/lib\libctru.a(fs.o)
 .text.FSUSER_SetCardSpiBaudRate
                0x00000000       0x48 c:/devkitPro/libctru/lib\libctru.a(fs.o)
 .text.FSUSER_SetCardSpiBusMode
                0x00000000       0x48 c:/devkitPro/libctru/lib\libctru.a(fs.o)
 .text.FSUSER_SendInitializeInfoTo9
                0x00000000       0x44 c:/devkitPro/libctru/lib\libctru.a(fs.o)
 .text.FSUSER_GetSpecialContentIndex
                0x00000000       0x6c c:/devkitPro/libctru/lib\libctru.a(fs.o)
 .text.FSUSER_GetLegacyRomHeader
                0x00000000       0x64 c:/devkitPro/libctru/lib\libctru.a(fs.o)
 .text.FSUSER_GetLegacyBannerData
                0x00000000       0x64 c:/devkitPro/libctru/lib\libctru.a(fs.o)
 .text.FSUSER_CheckAuthorityToAccessExtSaveData
                0x00000000       0x78 c:/devkitPro/libctru/lib\libctru.a(fs.o)
 .text.FSUSER_QueryTotalQuotaSize
                0x00000000       0x7c c:/devkitPro/libctru/lib\libctru.a(fs.o)
 .text.FSUSER_AbnegateAccessRight
                0x00000000       0x48 c:/devkitPro/libctru/lib\libctru.a(fs.o)
 .text.FSUSER_DeleteSdmcRoot
                0x00000000       0x44 c:/devkitPro/libctru/lib\libctru.a(fs.o)
 .text.FSUSER_DeleteAllExtSaveDataOnNand
                0x00000000       0x4c c:/devkitPro/libctru/lib\libctru.a(fs.o)
 .text.FSUSER_InitializeCtrFileSystem
                0x00000000       0x44 c:/devkitPro/libctru/lib\libctru.a(fs.o)
 .text.FSUSER_CreateSeed
                0x00000000       0x44 c:/devkitPro/libctru/lib\libctru.a(fs.o)
 .text.FSUSER_GetFormatInfo
                0x00000000       0xc0 c:/devkitPro/libctru/lib\libctru.a(fs.o)
 .text.FSUSER_GetLegacyRomHeader2
                0x00000000       0x68 c:/devkitPro/libctru/lib\libctru.a(fs.o)
 .text.FSUSER_GetSdmcCtrRootPath
                0x00000000       0x58 c:/devkitPro/libctru/lib\libctru.a(fs.o)
 .text.FSUSER_GetArchiveResource
                0x00000000       0x7c c:/devkitPro/libctru/lib\libctru.a(fs.o)
 .text.FSUSER_ExportIntegrityVerificationSeed
                0x00000000       0x54 c:/devkitPro/libctru/lib\libctru.a(fs.o)
 .text.FSUSER_ImportIntegrityVerificationSeed
                0x00000000       0x54 c:/devkitPro/libctru/lib\libctru.a(fs.o)
 .text.FSUSER_FormatSaveData
                0x00000000       0xac c:/devkitPro/libctru/lib\libctru.a(fs.o)
 .text.FSUSER_GetLegacySubBannerData
                0x00000000       0x68 c:/devkitPro/libctru/lib\libctru.a(fs.o)
 .text.FSUSER_ReadSpecialFile
                0x00000000       0x84 c:/devkitPro/libctru/lib\libctru.a(fs.o)
 .text.FSUSER_GetSpecialFileSize
                0x00000000       0x64 c:/devkitPro/libctru/lib\libctru.a(fs.o)
 .text.FSUSER_CreateExtSaveData
                0x00000000       0xa4 c:/devkitPro/libctru/lib\libctru.a(fs.o)
 .text.FSUSER_DeleteExtSaveData
                0x00000000       0x68 c:/devkitPro/libctru/lib\libctru.a(fs.o)
 .text.FSUSER_ReadExtSaveDataIcon
                0x00000000       0xa8 c:/devkitPro/libctru/lib\libctru.a(fs.o)
 .text.FSUSER_GetExtDataBlockSize
                0x00000000       0xb4 c:/devkitPro/libctru/lib\libctru.a(fs.o)
 .text.FSUSER_EnumerateExtSaveData
                0x00000000       0x80 c:/devkitPro/libctru/lib\libctru.a(fs.o)
 .text.FSUSER_CreateSystemSaveData
                0x00000000       0x90 c:/devkitPro/libctru/lib\libctru.a(fs.o)
 .text.FSUSER_DeleteSystemSaveData
                0x00000000       0x60 c:/devkitPro/libctru/lib\libctru.a(fs.o)
 .text.FSUSER_StartDeviceMoveAsSource
                0x00000000       0x98 c:/devkitPro/libctru/lib\libctru.a(fs.o)
 .text.FSUSER_StartDeviceMoveAsDestination
                0x00000000       0xa0 c:/devkitPro/libctru/lib\libctru.a(fs.o)
 .text.FSUSER_SetArchivePriority
                0x00000000       0x68 c:/devkitPro/libctru/lib\libctru.a(fs.o)
 .text.FSUSER_GetArchivePriority
                0x00000000       0x80 c:/devkitPro/libctru/lib\libctru.a(fs.o)
 .text.FSUSER_SetCtrCardLatencyParameter
                0x00000000       0x50 c:/devkitPro/libctru/lib\libctru.a(fs.o)
 .text.FSUSER_SwitchCleanupInvalidSaveData
                0x00000000       0x48 c:/devkitPro/libctru/lib\libctru.a(fs.o)
 .text.FSUSER_EnumerateSystemSaveData
                0x00000000       0x6c c:/devkitPro/libctru/lib\libctru.a(fs.o)
 .text.FSUSER_InitializeWithSdkVersion
                0x00000000       0x30 c:/devkitPro/libctru/lib\libctru.a(fs.o)
 .text.FSUSER_SetPriority
                0x00000000       0x48 c:/devkitPro/libctru/lib\libctru.a(fs.o)
 .text.FSUSER_GetPriority
                0x00000000       0x58 c:/devkitPro/libctru/lib\libctru.a(fs.o)
 .text.FSUSER_SetSaveDataSecureValue
                0x00000000       0x5c c:/devkitPro/libctru/lib\libctru.a(fs.o)
 .text.FSUSER_GetSaveDataSecureValue
                0x00000000       0x88 c:/devkitPro/libctru/lib\libctru.a(fs.o)
 .text.FSUSER_ControlSecureSave
                0x00000000       0x74 c:/devkitPro/libctru/lib\libctru.a(fs.o)
 .text.FSUSER_GetMediaType
                0x00000000       0x58 c:/devkitPro/libctru/lib\libctru.a(fs.o)
 .text.FSFILE_OpenSubFile
                0x00000000       0x50 c:/devkitPro/libctru/lib\libctru.a(fs.o)
 .text.FSFILE_GetAttributes
                0x00000000       0x38 c:/devkitPro/libctru/lib\libctru.a(fs.o)
 .text.FSFILE_SetAttributes
                0x00000000       0x28 c:/devkitPro/libctru/lib\libctru.a(fs.o)
 .text.FSFILE_SetPriority
                0x00000000       0x28 c:/devkitPro/libctru/lib\libctru.a(fs.o)
 .text.FSFILE_GetPriority
                0x00000000       0x38 c:/devkitPro/libctru/lib\libctru.a(fs.o)
 .text.FSFILE_OpenLinkFile
                0x00000000       0x38 c:/devkitPro/libctru/lib\libctru.a(fs.o)
 .text.FSDIR_Control
                0x00000000       0x58 c:/devkitPro/libctru/lib\libctru.a(fs.o)
 .text.FSFILE_Control
                0x00000000        0x4 c:/devkitPro/libctru/lib\libctru.a(fs.o)
 .text.FSDIR_SetPriority
                0x00000000       0x28 c:/devkitPro/libctru/lib\libctru.a(fs.o)
 .text.FSDIR_GetPriority
                0x00000000       0x38 c:/devkitPro/libctru/lib\libctru.a(fs.o)
 .comment       0x00000000       0x23 c:/devkitPro/libctru/lib\libctru.a(fs.o)
 .text          0x00000000        0x0 c:/devkitPro/libctru/lib\libctru.a(decode_utf8.o)
 .data          0x00000000        0x0 c:/devkitPro/libctru/lib\libctru.a(decode_utf8.o)
 .bss           0x00000000        0x0 c:/devkitPro/libctru/lib\libctru.a(decode_utf8.o)
 .comment       0x00000000       0x23 c:/devkitPro/libctru/lib\libctru.a(decode_utf8.o)
 .text          0x00000000        0x0 c:/devkitPro/libctru/lib\libctru.a(utf16_to_utf8.o)
 .data          0x00000000        0x0 c:/devkitPro/libctru/lib\libctru.a(utf16_to_utf8.o)
 .bss           0x00000000        0x0 c:/devkitPro/libctru/lib\libctru.a(utf16_to_utf8.o)
 .comment       0x00000000       0x23 c:/devkitPro/libctru/lib\libctru.a(utf16_to_utf8.o)
 .text          0x00000000        0x0 c:/devkitPro/libctru/lib\libctru.a(utf8_to_utf16.o)
 .data          0x00000000        0x0 c:/devkitPro/libctru/lib\libctru.a(utf8_to_utf16.o)
 .bss           0x00000000        0x0 c:/devkitPro/libctru/lib\libctru.a(utf8_to_utf16.o)
 .comment       0x00000000       0x23 c:/devkitPro/libctru/lib\libctru.a(utf8_to_utf16.o)
 .text          0x00000000        0x0 c:/devkitPro/libctru/lib\libctru.a(readtp.o)
 .data          0x00000000        0x0 c:/devkitPro/libctru/lib\libctru.a(readtp.o)
 .bss           0x00000000        0x0 c:/devkitPro/libctru/lib\libctru.a(readtp.o)
 .text          0x00000000        0x0 c:/devkitPro/libctru/lib\libctru.a(decode_utf16.o)
 .data          0x00000000        0x0 c:/devkitPro/libctru/lib\libctru.a(decode_utf16.o)
 .bss           0x00000000        0x0 c:/devkitPro/libctru/lib\libctru.a(decode_utf16.o)
 .comment       0x00000000       0x23 c:/devkitPro/libctru/lib\libctru.a(decode_utf16.o)
 .text          0x00000000        0x0 c:/devkitPro/libctru/lib\libctru.a(encode_utf16.o)
 .data          0x00000000        0x0 c:/devkitPro/libctru/lib\libctru.a(encode_utf16.o)
 .bss           0x00000000        0x0 c:/devkitPro/libctru/lib\libctru.a(encode_utf16.o)
 .comment       0x00000000       0x23 c:/devkitPro/libctru/lib\libctru.a(encode_utf16.o)
 .text          0x00000000        0x0 c:/devkitPro/libctru/lib\libctru.a(encode_utf8.o)
 .data          0x00000000        0x0 c:/devkitPro/libctru/lib\libctru.a(encode_utf8.o)
 .bss           0x00000000        0x0 c:/devkitPro/libctru/lib\libctru.a(encode_utf8.o)
 .comment       0x00000000       0x23 c:/devkitPro/libctru/lib\libctru.a(encode_utf8.o)
 .text          0x00000000        0x0 c:/devkitpro/devkitarm/bin/../lib/gcc/arm-none-eabi/5.3.0/../../../../arm-none-eabi/lib/armv6k/fpu\libm.a(lib_a-sf_cos.o)
 .data          0x00000000        0x0 c:/devkitpro/devkitarm/bin/../lib/gcc/arm-none-eabi/5.3.0/../../../../arm-none-eabi/lib/armv6k/fpu\libm.a(lib_a-sf_cos.o)
 .bss           0x00000000        0x0 c:/devkitpro/devkitarm/bin/../lib/gcc/arm-none-eabi/5.3.0/../../../../arm-none-eabi/lib/armv6k/fpu\libm.a(lib_a-sf_cos.o)
 .text.cosf     0x00000000       0xc4 c:/devkitpro/devkitarm/bin/../lib/gcc/arm-none-eabi/5.3.0/../../../../arm-none-eabi/lib/armv6k/fpu\libm.a(lib_a-sf_cos.o)
 .comment       0x00000000       0x23 c:/devkitpro/devkitarm/bin/../lib/gcc/arm-none-eabi/5.3.0/../../../../arm-none-eabi/lib/armv6k/fpu\libm.a(lib_a-sf_cos.o)
 .ARM.attributes
                0x00000000       0x30 c:/devkitpro/devkitarm/bin/../lib/gcc/arm-none-eabi/5.3.0/../../../../arm-none-eabi/lib/armv6k/fpu\libm.a(lib_a-sf_cos.o)
 .text          0x00000000        0x0 c:/devkitpro/devkitarm/bin/../lib/gcc/arm-none-eabi/5.3.0/../../../../arm-none-eabi/lib/armv6k/fpu\libm.a(lib_a-sf_sin.o)
 .data          0x00000000        0x0 c:/devkitpro/devkitarm/bin/../lib/gcc/arm-none-eabi/5.3.0/../../../../arm-none-eabi/lib/armv6k/fpu\libm.a(lib_a-sf_sin.o)
 .bss           0x00000000        0x0 c:/devkitpro/devkitarm/bin/../lib/gcc/arm-none-eabi/5.3.0/../../../../arm-none-eabi/lib/armv6k/fpu\libm.a(lib_a-sf_sin.o)
 .text.sinf     0x00000000       0xcc c:/devkitpro/devkitarm/bin/../lib/gcc/arm-none-eabi/5.3.0/../../../../arm-none-eabi/lib/armv6k/fpu\libm.a(lib_a-sf_sin.o)
 .comment       0x00000000       0x23 c:/devkitpro/devkitarm/bin/../lib/gcc/arm-none-eabi/5.3.0/../../../../arm-none-eabi/lib/armv6k/fpu\libm.a(lib_a-sf_sin.o)
 .ARM.attributes
                0x00000000       0x30 c:/devkitpro/devkitarm/bin/../lib/gcc/arm-none-eabi/5.3.0/../../../../arm-none-eabi/lib/armv6k/fpu\libm.a(lib_a-sf_sin.o)
 .text          0x00000000        0x0 c:/devkitpro/devkitarm/bin/../lib/gcc/arm-none-eabi/5.3.0/../../../../arm-none-eabi/lib/armv6k/fpu\libm.a(lib_a-ef_rem_pio2.o)
 .data          0x00000000        0x0 c:/devkitpro/devkitarm/bin/../lib/gcc/arm-none-eabi/5.3.0/../../../../arm-none-eabi/lib/armv6k/fpu\libm.a(lib_a-ef_rem_pio2.o)
 .bss           0x00000000        0x0 c:/devkitpro/devkitarm/bin/../lib/gcc/arm-none-eabi/5.3.0/../../../../arm-none-eabi/lib/armv6k/fpu\libm.a(lib_a-ef_rem_pio2.o)
 .text.__ieee754_rem_pio2f
                0x00000000      0x2e0 c:/devkitpro/devkitarm/bin/../lib/gcc/arm-none-eabi/5.3.0/../../../../arm-none-eabi/lib/armv6k/fpu\libm.a(lib_a-ef_rem_pio2.o)
 .rodata.npio2_hw
                0x00000000       0x80 c:/devkitpro/devkitarm/bin/../lib/gcc/arm-none-eabi/5.3.0/../../../../arm-none-eabi/lib/armv6k/fpu\libm.a(lib_a-ef_rem_pio2.o)
 .rodata.two_over_pi
                0x00000000      0x318 c:/devkitpro/devkitarm/bin/../lib/gcc/arm-none-eabi/5.3.0/../../../../arm-none-eabi/lib/armv6k/fpu\libm.a(lib_a-ef_rem_pio2.o)
 .comment       0x00000000       0x23 c:/devkitpro/devkitarm/bin/../lib/gcc/arm-none-eabi/5.3.0/../../../../arm-none-eabi/lib/armv6k/fpu\libm.a(lib_a-ef_rem_pio2.o)
 .ARM.attributes
                0x00000000       0x30 c:/devkitpro/devkitarm/bin/../lib/gcc/arm-none-eabi/5.3.0/../../../../arm-none-eabi/lib/armv6k/fpu\libm.a(lib_a-ef_rem_pio2.o)
 .text          0x00000000        0x0 c:/devkitpro/devkitarm/bin/../lib/gcc/arm-none-eabi/5.3.0/../../../../arm-none-eabi/lib/armv6k/fpu\libm.a(lib_a-kf_cos.o)
 .data          0x00000000        0x0 c:/devkitpro/devkitarm/bin/../lib/gcc/arm-none-eabi/5.3.0/../../../../arm-none-eabi/lib/armv6k/fpu\libm.a(lib_a-kf_cos.o)
 .bss           0x00000000        0x0 c:/devkitpro/devkitarm/bin/../lib/gcc/arm-none-eabi/5.3.0/../../../../arm-none-eabi/lib/armv6k/fpu\libm.a(lib_a-kf_cos.o)
 .text.__kernel_cosf
                0x00000000      0x124 c:/devkitpro/devkitarm/bin/../lib/gcc/arm-none-eabi/5.3.0/../../../../arm-none-eabi/lib/armv6k/fpu\libm.a(lib_a-kf_cos.o)
 .comment       0x00000000       0x23 c:/devkitpro/devkitarm/bin/../lib/gcc/arm-none-eabi/5.3.0/../../../../arm-none-eabi/lib/armv6k/fpu\libm.a(lib_a-kf_cos.o)
 .ARM.attributes
                0x00000000       0x30 c:/devkitpro/devkitarm/bin/../lib/gcc/arm-none-eabi/5.3.0/../../../../arm-none-eabi/lib/armv6k/fpu\libm.a(lib_a-kf_cos.o)
 .text          0x00000000        0x0 c:/devkitpro/devkitarm/bin/../lib/gcc/arm-none-eabi/5.3.0/../../../../arm-none-eabi/lib/armv6k/fpu\libm.a(lib_a-kf_rem_pio2.o)
 .data          0x00000000        0x0 c:/devkitpro/devkitarm/bin/../lib/gcc/arm-none-eabi/5.3.0/../../../../arm-none-eabi/lib/armv6k/fpu\libm.a(lib_a-kf_rem_pio2.o)
 .bss           0x00000000        0x0 c:/devkitpro/devkitarm/bin/../lib/gcc/arm-none-eabi/5.3.0/../../../../arm-none-eabi/lib/armv6k/fpu\libm.a(lib_a-kf_rem_pio2.o)
 .text.__kernel_rem_pio2f
                0x00000000      0x828 c:/devkitpro/devkitarm/bin/../lib/gcc/arm-none-eabi/5.3.0/../../../../arm-none-eabi/lib/armv6k/fpu\libm.a(lib_a-kf_rem_pio2.o)
 .rodata.init_jk
                0x00000000        0xc c:/devkitpro/devkitarm/bin/../lib/gcc/arm-none-eabi/5.3.0/../../../../arm-none-eabi/lib/armv6k/fpu\libm.a(lib_a-kf_rem_pio2.o)
 .rodata.PIo2   0x00000000       0x2c c:/devkitpro/devkitarm/bin/../lib/gcc/arm-none-eabi/5.3.0/../../../../arm-none-eabi/lib/armv6k/fpu\libm.a(lib_a-kf_rem_pio2.o)
 .comment       0x00000000       0x23 c:/devkitpro/devkitarm/bin/../lib/gcc/arm-none-eabi/5.3.0/../../../../arm-none-eabi/lib/armv6k/fpu\libm.a(lib_a-kf_rem_pio2.o)
 .ARM.attributes
                0x00000000       0x30 c:/devkitpro/devkitarm/bin/../lib/gcc/arm-none-eabi/5.3.0/../../../../arm-none-eabi/lib/armv6k/fpu\libm.a(lib_a-kf_rem_pio2.o)
 .text          0x00000000        0x0 c:/devkitpro/devkitarm/bin/../lib/gcc/arm-none-eabi/5.3.0/../../../../arm-none-eabi/lib/armv6k/fpu\libm.a(lib_a-kf_sin.o)
 .data          0x00000000        0x0 c:/devkitpro/devkitarm/bin/../lib/gcc/arm-none-eabi/5.3.0/../../../../arm-none-eabi/lib/armv6k/fpu\libm.a(lib_a-kf_sin.o)
 .bss           0x00000000        0x0 c:/devkitpro/devkitarm/bin/../lib/gcc/arm-none-eabi/5.3.0/../../../../arm-none-eabi/lib/armv6k/fpu\libm.a(lib_a-kf_sin.o)
 .text.__kernel_sinf
                0x00000000       0xa0 c:/devkitpro/devkitarm/bin/../lib/gcc/arm-none-eabi/5.3.0/../../../../arm-none-eabi/lib/armv6k/fpu\libm.a(lib_a-kf_sin.o)
 .comment       0x00000000       0x23 c:/devkitpro/devkitarm/bin/../lib/gcc/arm-none-eabi/5.3.0/../../../../arm-none-eabi/lib/armv6k/fpu\libm.a(lib_a-kf_sin.o)
 .ARM.attributes
                0x00000000       0x30 c:/devkitpro/devkitarm/bin/../lib/gcc/arm-none-eabi/5.3.0/../../../../arm-none-eabi/lib/armv6k/fpu\libm.a(lib_a-kf_sin.o)
 .text          0x00000000        0x0 c:/devkitpro/devkitarm/bin/../lib/gcc/arm-none-eabi/5.3.0/../../../../arm-none-eabi/lib/armv6k/fpu\libm.a(lib_a-sf_fabs.o)
 .data          0x00000000        0x0 c:/devkitpro/devkitarm/bin/../lib/gcc/arm-none-eabi/5.3.0/../../../../arm-none-eabi/lib/armv6k/fpu\libm.a(lib_a-sf_fabs.o)
 .bss           0x00000000        0x0 c:/devkitpro/devkitarm/bin/../lib/gcc/arm-none-eabi/5.3.0/../../../../arm-none-eabi/lib/armv6k/fpu\libm.a(lib_a-sf_fabs.o)
 .text.fabsf    0x00000000       0x10 c:/devkitpro/devkitarm/bin/../lib/gcc/arm-none-eabi/5.3.0/../../../../arm-none-eabi/lib/armv6k/fpu\libm.a(lib_a-sf_fabs.o)
 .comment       0x00000000       0x23 c:/devkitpro/devkitarm/bin/../lib/gcc/arm-none-eabi/5.3.0/../../../../arm-none-eabi/lib/armv6k/fpu\libm.a(lib_a-sf_fabs.o)
 .ARM.attributes
                0x00000000       0x30 c:/devkitpro/devkitarm/bin/../lib/gcc/arm-none-eabi/5.3.0/../../../../arm-none-eabi/lib/armv6k/fpu\libm.a(lib_a-sf_fabs.o)
 .text          0x00000000        0x0 c:/devkitpro/devkitarm/bin/../lib/gcc/arm-none-eabi/5.3.0/../../../../arm-none-eabi/lib/armv6k/fpu\libm.a(lib_a-sf_floor.o)
 .data          0x00000000        0x0 c:/devkitpro/devkitarm/bin/../lib/gcc/arm-none-eabi/5.3.0/../../../../arm-none-eabi/lib/armv6k/fpu\libm.a(lib_a-sf_floor.o)
 .bss           0x00000000        0x0 c:/devkitpro/devkitarm/bin/../lib/gcc/arm-none-eabi/5.3.0/../../../../arm-none-eabi/lib/armv6k/fpu\libm.a(lib_a-sf_floor.o)
 .text.floorf   0x00000000       0xb8 c:/devkitpro/devkitarm/bin/../lib/gcc/arm-none-eabi/5.3.0/../../../../arm-none-eabi/lib/armv6k/fpu\libm.a(lib_a-sf_floor.o)
 .comment       0x00000000       0x23 c:/devkitpro/devkitarm/bin/../lib/gcc/arm-none-eabi/5.3.0/../../../../arm-none-eabi/lib/armv6k/fpu\libm.a(lib_a-sf_floor.o)
 .ARM.attributes
                0x00000000       0x30 c:/devkitpro/devkitarm/bin/../lib/gcc/arm-none-eabi/5.3.0/../../../../arm-none-eabi/lib/armv6k/fpu\libm.a(lib_a-sf_floor.o)
 .text          0x00000000        0x0 c:/devkitpro/devkitarm/bin/../lib/gcc/arm-none-eabi/5.3.0/../../../../arm-none-eabi/lib/armv6k/fpu\libm.a(lib_a-sf_scalbn.o)
 .data          0x00000000        0x0 c:/devkitpro/devkitarm/bin/../lib/gcc/arm-none-eabi/5.3.0/../../../../arm-none-eabi/lib/armv6k/fpu\libm.a(lib_a-sf_scalbn.o)
 .bss           0x00000000        0x0 c:/devkitpro/devkitarm/bin/../lib/gcc/arm-none-eabi/5.3.0/../../../../arm-none-eabi/lib/armv6k/fpu\libm.a(lib_a-sf_scalbn.o)
 .text.scalbnf  0x00000000      0x118 c:/devkitpro/devkitarm/bin/../lib/gcc/arm-none-eabi/5.3.0/../../../../arm-none-eabi/lib/armv6k/fpu\libm.a(lib_a-sf_scalbn.o)
 .comment       0x00000000       0x23 c:/devkitpro/devkitarm/bin/../lib/gcc/arm-none-eabi/5.3.0/../../../../arm-none-eabi/lib/armv6k/fpu\libm.a(lib_a-sf_scalbn.o)
 .ARM.attributes
                0x00000000       0x30 c:/devkitpro/devkitarm/bin/../lib/gcc/arm-none-eabi/5.3.0/../../../../arm-none-eabi/lib/armv6k/fpu\libm.a(lib_a-sf_scalbn.o)
 .text          0x00000000        0x0 c:/devkitpro/devkitarm/bin/../lib/gcc/arm-none-eabi/5.3.0/../../../../arm-none-eabi/lib/armv6k/fpu\libm.a(lib_a-sf_copysign.o)
 .data          0x00000000        0x0 c:/devkitpro/devkitarm/bin/../lib/gcc/arm-none-eabi/5.3.0/../../../../arm-none-eabi/lib/armv6k/fpu\libm.a(lib_a-sf_copysign.o)
 .bss           0x00000000        0x0 c:/devkitpro/devkitarm/bin/../lib/gcc/arm-none-eabi/5.3.0/../../../../arm-none-eabi/lib/armv6k/fpu\libm.a(lib_a-sf_copysign.o)
 .text.copysignf
                0x00000000       0x1c c:/devkitpro/devkitarm/bin/../lib/gcc/arm-none-eabi/5.3.0/../../../../arm-none-eabi/lib/armv6k/fpu\libm.a(lib_a-sf_copysign.o)
 .comment       0x00000000       0x23 c:/devkitpro/devkitarm/bin/../lib/gcc/arm-none-eabi/5.3.0/../../../../arm-none-eabi/lib/armv6k/fpu\libm.a(lib_a-sf_copysign.o)
 .ARM.attributes
                0x00000000       0x30 c:/devkitpro/devkitarm/bin/../lib/gcc/arm-none-eabi/5.3.0/../../../../arm-none-eabi/lib/armv6k/fpu\libm.a(lib_a-sf_copysign.o)
 .data          0x00000000        0x0 c:/devkitpro/devkitarm/bin/../lib/gcc/arm-none-eabi/5.3.0/armv6k/fpu\libgcc.a(_arm_addsubsf3.o)
 .bss           0x00000000        0x0 c:/devkitpro/devkitarm/bin/../lib/gcc/arm-none-eabi/5.3.0/armv6k/fpu\libgcc.a(_arm_addsubsf3.o)
 .text          0x00000000       0x3c c:/devkitpro/devkitarm/bin/../lib/gcc/arm-none-eabi/5.3.0/armv6k/fpu\libgcc.a(_aeabi_uldivmod.o)
 .data          0x00000000        0x0 c:/devkitpro/devkitarm/bin/../lib/gcc/arm-none-eabi/5.3.0/armv6k/fpu\libgcc.a(_aeabi_uldivmod.o)
 .bss           0x00000000        0x0 c:/devkitpro/devkitarm/bin/../lib/gcc/arm-none-eabi/5.3.0/armv6k/fpu\libgcc.a(_aeabi_uldivmod.o)
 .ARM.attributes
                0x00000000       0x1c c:/devkitpro/devkitarm/bin/../lib/gcc/arm-none-eabi/5.3.0/armv6k/fpu\libgcc.a(_aeabi_uldivmod.o)
 .text          0x00000000      0x128 c:/devkitpro/devkitarm/bin/../lib/gcc/arm-none-eabi/5.3.0/armv6k/fpu\libgcc.a(_udivmoddi4.o)
 .data          0x00000000        0x0 c:/devkitpro/devkitarm/bin/../lib/gcc/arm-none-eabi/5.3.0/armv6k/fpu\libgcc.a(_udivmoddi4.o)
 .bss           0x00000000        0x0 c:/devkitpro/devkitarm/bin/../lib/gcc/arm-none-eabi/5.3.0/armv6k/fpu\libgcc.a(_udivmoddi4.o)
 .comment       0x00000000       0x23 c:/devkitpro/devkitarm/bin/../lib/gcc/arm-none-eabi/5.3.0/armv6k/fpu\libgcc.a(_udivmoddi4.o)
 .ARM.attributes
                0x00000000       0x30 c:/devkitpro/devkitarm/bin/../lib/gcc/arm-none-eabi/5.3.0/armv6k/fpu\libgcc.a(_udivmoddi4.o)
 .data          0x00000000        0x0 c:/devkitpro/devkitarm/bin/../lib/gcc/arm-none-eabi/5.3.0/armv6k/fpu\libgcc.a(_dvmd_tls.o)
 .bss           0x00000000        0x0 c:/devkitpro/devkitarm/bin/../lib/gcc/arm-none-eabi/5.3.0/armv6k/fpu\libgcc.a(_dvmd_tls.o)
 .text          0x00000000        0x0 c:/devkitpro/devkitarm/bin/../lib/gcc/arm-none-eabi/5.3.0/../../../../arm-none-eabi/lib/armv6k/fpu\libg.a(lib_a-bsearch.o)
 .data          0x00000000        0x0 c:/devkitpro/devkitarm/bin/../lib/gcc/arm-none-eabi/5.3.0/../../../../arm-none-eabi/lib/armv6k/fpu\libg.a(lib_a-bsearch.o)
 .bss           0x00000000        0x0 c:/devkitpro/devkitarm/bin/../lib/gcc/arm-none-eabi/5.3.0/../../../../arm-none-eabi/lib/armv6k/fpu\libg.a(lib_a-bsearch.o)
 .comment       0x00000000       0x23 c:/devkitpro/devkitarm/bin/../lib/gcc/arm-none-eabi/5.3.0/../../../../arm-none-eabi/lib/armv6k/fpu\libg.a(lib_a-bsearch.o)
 .text          0x00000000        0x0 c:/devkitpro/devkitarm/bin/../lib/gcc/arm-none-eabi/5.3.0/../../../../arm-none-eabi/lib/armv6k/fpu\libg.a(lib_a-calloc.o)
 .data          0x00000000        0x0 c:/devkitpro/devkitarm/bin/../lib/gcc/arm-none-eabi/5.3.0/../../../../arm-none-eabi/lib/armv6k/fpu\libg.a(lib_a-calloc.o)
 .bss           0x00000000        0x0 c:/devkitpro/devkitarm/bin/../lib/gcc/arm-none-eabi/5.3.0/../../../../arm-none-eabi/lib/armv6k/fpu\libg.a(lib_a-calloc.o)
 .comment       0x00000000       0x23 c:/devkitpro/devkitarm/bin/../lib/gcc/arm-none-eabi/5.3.0/../../../../arm-none-eabi/lib/armv6k/fpu\libg.a(lib_a-calloc.o)
 .text          0x00000000        0x0 c:/devkitpro/devkitarm/bin/../lib/gcc/arm-none-eabi/5.3.0/../../../../arm-none-eabi/lib/armv6k/fpu\libg.a(lib_a-callocr.o)
 .data          0x00000000        0x0 c:/devkitpro/devkitarm/bin/../lib/gcc/arm-none-eabi/5.3.0/../../../../arm-none-eabi/lib/armv6k/fpu\libg.a(lib_a-callocr.o)
 .bss           0x00000000        0x0 c:/devkitpro/devkitarm/bin/../lib/gcc/arm-none-eabi/5.3.0/../../../../arm-none-eabi/lib/armv6k/fpu\libg.a(lib_a-callocr.o)
 .comment       0x00000000       0x23 c:/devkitpro/devkitarm/bin/../lib/gcc/arm-none-eabi/5.3.0/../../../../arm-none-eabi/lib/armv6k/fpu\libg.a(lib_a-callocr.o)
 .text          0x00000000        0x0 c:/devkitpro/devkitarm/bin/../lib/gcc/arm-none-eabi/5.3.0/../../../../arm-none-eabi/lib/armv6k/fpu\libg.a(lib_a-errno.o)
 .data          0x00000000        0x0 c:/devkitpro/devkitarm/bin/../lib/gcc/arm-none-eabi/5.3.0/../../../../arm-none-eabi/lib/armv6k/fpu\libg.a(lib_a-errno.o)
 .bss           0x00000000        0x0 c:/devkitpro/devkitarm/bin/../lib/gcc/arm-none-eabi/5.3.0/../../../../arm-none-eabi/lib/armv6k/fpu\libg.a(lib_a-errno.o)
 .text.__errno  0x00000000        0xc c:/devkitpro/devkitarm/bin/../lib/gcc/arm-none-eabi/5.3.0/../../../../arm-none-eabi/lib/armv6k/fpu\libg.a(lib_a-errno.o)
 .comment       0x00000000       0x23 c:/devkitpro/devkitarm/bin/../lib/gcc/arm-none-eabi/5.3.0/../../../../arm-none-eabi/lib/armv6k/fpu\libg.a(lib_a-errno.o)
 .ARM.attributes
                0x00000000       0x30 c:/devkitpro/devkitarm/bin/../lib/gcc/arm-none-eabi/5.3.0/../../../../arm-none-eabi/lib/armv6k/fpu\libg.a(lib_a-errno.o)
 .text          0x00000000        0x0 c:/devkitpro/devkitarm/bin/../lib/gcc/arm-none-eabi/5.3.0/../../../../arm-none-eabi/lib/armv6k/fpu\libg.a(lib_a-fini.o)
 .data          0x00000000        0x0 c:/devkitpro/devkitarm/bin/../lib/gcc/arm-none-eabi/5.3.0/../../../../arm-none-eabi/lib/armv6k/fpu\libg.a(lib_a-fini.o)
 .bss           0x00000000        0x0 c:/devkitpro/devkitarm/bin/../lib/gcc/arm-none-eabi/5.3.0/../../../../arm-none-eabi/lib/armv6k/fpu\libg.a(lib_a-fini.o)
 .comment       0x00000000       0x23 c:/devkitpro/devkitarm/bin/../lib/gcc/arm-none-eabi/5.3.0/../../../../arm-none-eabi/lib/armv6k/fpu\libg.a(lib_a-fini.o)
 .text          0x00000000        0x0 c:/devkitpro/devkitarm/bin/../lib/gcc/arm-none-eabi/5.3.0/../../../../arm-none-eabi/lib/armv6k/fpu\libg.a(lib_a-impure.o)
 .data          0x00000000        0x0 c:/devkitpro/devkitarm/bin/../lib/gcc/arm-none-eabi/5.3.0/../../../../arm-none-eabi/lib/armv6k/fpu\libg.a(lib_a-impure.o)
 .bss           0x00000000        0x0 c:/devkitpro/devkitarm/bin/../lib/gcc/arm-none-eabi/5.3.0/../../../../arm-none-eabi/lib/armv6k/fpu\libg.a(lib_a-impure.o)
 .rodata._global_impure_ptr
                0x00000000        0x4 c:/devkitpro/devkitarm/bin/../lib/gcc/arm-none-eabi/5.3.0/../../../../arm-none-eabi/lib/armv6k/fpu\libg.a(lib_a-impure.o)
 .comment       0x00000000       0x23 c:/devkitpro/devkitarm/bin/../lib/gcc/arm-none-eabi/5.3.0/../../../../arm-none-eabi/lib/armv6k/fpu\libg.a(lib_a-impure.o)
 .text          0x00000000        0x0 c:/devkitpro/devkitarm/bin/../lib/gcc/arm-none-eabi/5.3.0/../../../../arm-none-eabi/lib/armv6k/fpu\libg.a(lib_a-init.o)
 .data          0x00000000        0x0 c:/devkitpro/devkitarm/bin/../lib/gcc/arm-none-eabi/5.3.0/../../../../arm-none-eabi/lib/armv6k/fpu\libg.a(lib_a-init.o)
 .bss           0x00000000        0x0 c:/devkitpro/devkitarm/bin/../lib/gcc/arm-none-eabi/5.3.0/../../../../arm-none-eabi/lib/armv6k/fpu\libg.a(lib_a-init.o)
 .comment       0x00000000       0x23 c:/devkitpro/devkitarm/bin/../lib/gcc/arm-none-eabi/5.3.0/../../../../arm-none-eabi/lib/armv6k/fpu\libg.a(lib_a-init.o)
 .text          0x00000000        0x0 c:/devkitpro/devkitarm/bin/../lib/gcc/arm-none-eabi/5.3.0/../../../../arm-none-eabi/lib/armv6k/fpu\libg.a(lib_a-malign.o)
 .data          0x00000000        0x0 c:/devkitpro/devkitarm/bin/../lib/gcc/arm-none-eabi/5.3.0/../../../../arm-none-eabi/lib/armv6k/fpu\libg.a(lib_a-malign.o)
 .bss           0x00000000        0x0 c:/devkitpro/devkitarm/bin/../lib/gcc/arm-none-eabi/5.3.0/../../../../arm-none-eabi/lib/armv6k/fpu\libg.a(lib_a-malign.o)
 .comment       0x00000000       0x23 c:/devkitpro/devkitarm/bin/../lib/gcc/arm-none-eabi/5.3.0/../../../../arm-none-eabi/lib/armv6k/fpu\libg.a(lib_a-malign.o)
 .text          0x00000000        0x0 c:/devkitpro/devkitarm/bin/../lib/gcc/arm-none-eabi/5.3.0/../../../../arm-none-eabi/lib/armv6k/fpu\libg.a(lib_a-malignr.o)
 .data          0x00000000        0x0 c:/devkitpro/devkitarm/bin/../lib/gcc/arm-none-eabi/5.3.0/../../../../arm-none-eabi/lib/armv6k/fpu\libg.a(lib_a-malignr.o)
 .bss           0x00000000        0x0 c:/devkitpro/devkitarm/bin/../lib/gcc/arm-none-eabi/5.3.0/../../../../arm-none-eabi/lib/armv6k/fpu\libg.a(lib_a-malignr.o)
 .comment       0x00000000       0x23 c:/devkitpro/devkitarm/bin/../lib/gcc/arm-none-eabi/5.3.0/../../../../arm-none-eabi/lib/armv6k/fpu\libg.a(lib_a-malignr.o)
 .text          0x00000000        0x0 c:/devkitpro/devkitarm/bin/../lib/gcc/arm-none-eabi/5.3.0/../../../../arm-none-eabi/lib/armv6k/fpu\libg.a(lib_a-malloc.o)
 .data          0x00000000        0x0 c:/devkitpro/devkitarm/bin/../lib/gcc/arm-none-eabi/5.3.0/../../../../arm-none-eabi/lib/armv6k/fpu\libg.a(lib_a-malloc.o)
 .bss           0x00000000        0x0 c:/devkitpro/devkitarm/bin/../lib/gcc/arm-none-eabi/5.3.0/../../../../arm-none-eabi/lib/armv6k/fpu\libg.a(lib_a-malloc.o)
 .comment       0x00000000       0x23 c:/devkitpro/devkitarm/bin/../lib/gcc/arm-none-eabi/5.3.0/../../../../arm-none-eabi/lib/armv6k/fpu\libg.a(lib_a-malloc.o)
 .text          0x00000000        0x0 c:/devkitpro/devkitarm/bin/../lib/gcc/arm-none-eabi/5.3.0/../../../../arm-none-eabi/lib/armv6k/fpu\libg.a(lib_a-mallocr.o)
 .data          0x00000000        0x0 c:/devkitpro/devkitarm/bin/../lib/gcc/arm-none-eabi/5.3.0/../../../../arm-none-eabi/lib/armv6k/fpu\libg.a(lib_a-mallocr.o)
 .bss           0x00000000        0x0 c:/devkitpro/devkitarm/bin/../lib/gcc/arm-none-eabi/5.3.0/../../../../arm-none-eabi/lib/armv6k/fpu\libg.a(lib_a-mallocr.o)
 .comment       0x00000000       0x23 c:/devkitpro/devkitarm/bin/../lib/gcc/arm-none-eabi/5.3.0/../../../../arm-none-eabi/lib/armv6k/fpu\libg.a(lib_a-mallocr.o)
 .text          0x00000000        0x0 c:/devkitpro/devkitarm/bin/../lib/gcc/arm-none-eabi/5.3.0/../../../../arm-none-eabi/lib/armv6k/fpu\libg.a(lib_a-memcpy.o)
 .data          0x00000000        0x0 c:/devkitpro/devkitarm/bin/../lib/gcc/arm-none-eabi/5.3.0/../../../../arm-none-eabi/lib/armv6k/fpu\libg.a(lib_a-memcpy.o)
 .bss           0x00000000        0x0 c:/devkitpro/devkitarm/bin/../lib/gcc/arm-none-eabi/5.3.0/../../../../arm-none-eabi/lib/armv6k/fpu\libg.a(lib_a-memcpy.o)
 .comment       0x00000000       0x23 c:/devkitpro/devkitarm/bin/../lib/gcc/arm-none-eabi/5.3.0/../../../../arm-none-eabi/lib/armv6k/fpu\libg.a(lib_a-memcpy.o)
 .text          0x00000000        0x0 c:/devkitpro/devkitarm/bin/../lib/gcc/arm-none-eabi/5.3.0/../../../../arm-none-eabi/lib/armv6k/fpu\libg.a(lib_a-memset.o)
 .data          0x00000000        0x0 c:/devkitpro/devkitarm/bin/../lib/gcc/arm-none-eabi/5.3.0/../../../../arm-none-eabi/lib/armv6k/fpu\libg.a(lib_a-memset.o)
 .bss           0x00000000        0x0 c:/devkitpro/devkitarm/bin/../lib/gcc/arm-none-eabi/5.3.0/../../../../arm-none-eabi/lib/armv6k/fpu\libg.a(lib_a-memset.o)
 .comment       0x00000000       0x23 c:/devkitpro/devkitarm/bin/../lib/gcc/arm-none-eabi/5.3.0/../../../../arm-none-eabi/lib/armv6k/fpu\libg.a(lib_a-memset.o)
 .text          0x00000000        0x0 c:/devkitpro/devkitarm/bin/../lib/gcc/arm-none-eabi/5.3.0/../../../../arm-none-eabi/lib/armv6k/fpu\libg.a(lib_a-mlock.o)
 .data          0x00000000        0x0 c:/devkitpro/devkitarm/bin/../lib/gcc/arm-none-eabi/5.3.0/../../../../arm-none-eabi/lib/armv6k/fpu\libg.a(lib_a-mlock.o)
 .bss           0x00000000        0x0 c:/devkitpro/devkitarm/bin/../lib/gcc/arm-none-eabi/5.3.0/../../../../arm-none-eabi/lib/armv6k/fpu\libg.a(lib_a-mlock.o)
 .comment       0x00000000       0x23 c:/devkitpro/devkitarm/bin/../lib/gcc/arm-none-eabi/5.3.0/../../../../arm-none-eabi/lib/armv6k/fpu\libg.a(lib_a-mlock.o)
 .data          0x00000000        0x0 c:/devkitpro/devkitarm/bin/../lib/gcc/arm-none-eabi/5.3.0/../../../../arm-none-eabi/lib/armv6k/fpu\libg.a(lib_a-strcmp.o)
 .bss           0x00000000        0x0 c:/devkitpro/devkitarm/bin/../lib/gcc/arm-none-eabi/5.3.0/../../../../arm-none-eabi/lib/armv6k/fpu\libg.a(lib_a-strcmp.o)
 .eh_frame      0x00000000       0x70 c:/devkitpro/devkitarm/bin/../lib/gcc/arm-none-eabi/5.3.0/../../../../arm-none-eabi/lib/armv6k/fpu\libg.a(lib_a-strcmp.o)
 .text          0x00000000        0x0 c:/devkitpro/devkitarm/bin/../lib/gcc/arm-none-eabi/5.3.0/../../../../arm-none-eabi/lib/armv6k/fpu\libg.a(lib_a-strlen.o)
 .data          0x00000000        0x0 c:/devkitpro/devkitarm/bin/../lib/gcc/arm-none-eabi/5.3.0/../../../../arm-none-eabi/lib/armv6k/fpu\libg.a(lib_a-strlen.o)
 .bss           0x00000000        0x0 c:/devkitpro/devkitarm/bin/../lib/gcc/arm-none-eabi/5.3.0/../../../../arm-none-eabi/lib/armv6k/fpu\libg.a(lib_a-strlen.o)
 .comment       0x00000000       0x23 c:/devkitpro/devkitarm/bin/../lib/gcc/arm-none-eabi/5.3.0/../../../../arm-none-eabi/lib/armv6k/fpu\libg.a(lib_a-strlen.o)
 .text          0x00000000        0x0 c:/devkitpro/devkitarm/bin/../lib/gcc/arm-none-eabi/5.3.0/../../../../arm-none-eabi/lib/armv6k/fpu\libg.a(lib_a-strncat.o)
 .data          0x00000000        0x0 c:/devkitpro/devkitarm/bin/../lib/gcc/arm-none-eabi/5.3.0/../../../../arm-none-eabi/lib/armv6k/fpu\libg.a(lib_a-strncat.o)
 .bss           0x00000000        0x0 c:/devkitpro/devkitarm/bin/../lib/gcc/arm-none-eabi/5.3.0/../../../../arm-none-eabi/lib/armv6k/fpu\libg.a(lib_a-strncat.o)
 .comment       0x00000000       0x23 c:/devkitpro/devkitarm/bin/../lib/gcc/arm-none-eabi/5.3.0/../../../../arm-none-eabi/lib/armv6k/fpu\libg.a(lib_a-strncat.o)
 .text          0x00000000        0x0 c:/devkitpro/devkitarm/bin/../lib/gcc/arm-none-eabi/5.3.0/../../../../arm-none-eabi/lib/armv6k/fpu\libg.a(lib_a-strncpy.o)
 .data          0x00000000        0x0 c:/devkitpro/devkitarm/bin/../lib/gcc/arm-none-eabi/5.3.0/../../../../arm-none-eabi/lib/armv6k/fpu\libg.a(lib_a-strncpy.o)
 .bss           0x00000000        0x0 c:/devkitpro/devkitarm/bin/../lib/gcc/arm-none-eabi/5.3.0/../../../../arm-none-eabi/lib/armv6k/fpu\libg.a(lib_a-strncpy.o)
 .comment       0x00000000       0x23 c:/devkitpro/devkitarm/bin/../lib/gcc/arm-none-eabi/5.3.0/../../../../arm-none-eabi/lib/armv6k/fpu\libg.a(lib_a-strncpy.o)
 .text          0x00000000        0x0 c:/devkitpro/devkitarm/bin/../lib/gcc/arm-none-eabi/5.3.0/../../../../arm-none-eabi/lib/armv6k/fpu\libg.a(lib_a-freer.o)
 .data          0x00000000        0x0 c:/devkitpro/devkitarm/bin/../lib/gcc/arm-none-eabi/5.3.0/../../../../arm-none-eabi/lib/armv6k/fpu\libg.a(lib_a-freer.o)
 .bss           0x00000000        0x0 c:/devkitpro/devkitarm/bin/../lib/gcc/arm-none-eabi/5.3.0/../../../../arm-none-eabi/lib/armv6k/fpu\libg.a(lib_a-freer.o)
 .comment       0x00000000       0x23 c:/devkitpro/devkitarm/bin/../lib/gcc/arm-none-eabi/5.3.0/../../../../arm-none-eabi/lib/armv6k/fpu\libg.a(lib_a-freer.o)
 .bss           0x00000000        0x0 c:/devkitpro/devkitarm/bin/../lib/gcc/arm-none-eabi/5.3.0/../../../../arm-none-eabi/lib/armv6k/fpu\libsysbase.a(iosupport.o)
 .comment       0x00000000       0x23 c:/devkitpro/devkitarm/bin/../lib/gcc/arm-none-eabi/5.3.0/../../../../arm-none-eabi/lib/armv6k/fpu\libsysbase.a(iosupport.o)
 .data          0x00000000        0x0 c:/devkitpro/devkitarm/bin/../lib/gcc/arm-none-eabi/5.3.0/../../../../arm-none-eabi/lib/armv6k/fpu\libsysbase.a(sbrk.o)
 .comment       0x00000000       0x23 c:/devkitpro/devkitarm/bin/../lib/gcc/arm-none-eabi/5.3.0/../../../../arm-none-eabi/lib/armv6k/fpu\libsysbase.a(sbrk.o)
 .text          0x00000000        0x0 c:/devkitpro/devkitarm/bin/../lib/gcc/arm-none-eabi/5.3.0/../../../../arm-none-eabi/lib/armv6k/fpu\libsysbase.a(malloc_vars.o)
 .data          0x00000000        0x0 c:/devkitpro/devkitarm/bin/../lib/gcc/arm-none-eabi/5.3.0/../../../../arm-none-eabi/lib/armv6k/fpu\libsysbase.a(malloc_vars.o)
 .comment       0x00000000       0x23 c:/devkitpro/devkitarm/bin/../lib/gcc/arm-none-eabi/5.3.0/../../../../arm-none-eabi/lib/armv6k/fpu\libsysbase.a(malloc_vars.o)
 .comment       0x00000000       0x23 c:/devkitpro/devkitarm/bin/../lib/gcc/arm-none-eabi/5.3.0/../../../../arm-none-eabi/lib/armv6k/fpu\libsysbase.a(chdir.o)
 .data          0x00000000        0x0 c:/devkitpro/devkitarm/bin/../lib/gcc/arm-none-eabi/5.3.0/../../../../arm-none-eabi/lib/armv6k/fpu\libsysbase.a(syscall_support.o)
 .comment       0x00000000       0x23 c:/devkitpro/devkitarm/bin/../lib/gcc/arm-none-eabi/5.3.0/../../../../arm-none-eabi/lib/armv6k/fpu\libsysbase.a(syscall_support.o)
 .data          0x00000000        0x0 c:/devkitpro/devkitarm/bin/../lib/gcc/arm-none-eabi/5.3.0/../../../../arm-none-eabi/lib/armv6k/fpu\libsysbase.a(getreent.o)
 .bss           0x00000000        0x0 c:/devkitpro/devkitarm/bin/../lib/gcc/arm-none-eabi/5.3.0/../../../../arm-none-eabi/lib/armv6k/fpu\libsysbase.a(getreent.o)
 .comment       0x00000000       0x23 c:/devkitpro/devkitarm/bin/../lib/gcc/arm-none-eabi/5.3.0/../../../../arm-none-eabi/lib/armv6k/fpu\libsysbase.a(getreent.o)
 .data          0x00000000        0x0 c:/devkitpro/devkitarm/bin/../lib/gcc/arm-none-eabi/5.3.0/armv6k/fpu\libgcc.a(_udivsi3.o)
 .bss           0x00000000        0x0 c:/devkitpro/devkitarm/bin/../lib/gcc/arm-none-eabi/5.3.0/armv6k/fpu\libgcc.a(_udivsi3.o)
 .text          0x00000000        0x0 c:/devkitpro/devkitarm/bin/../lib/gcc/arm-none-eabi/5.3.0/../../../../arm-none-eabi/lib/armv6k/fpu\libg.a(lib_a-ctype_.o)
 .data          0x00000000        0x0 c:/devkitpro/devkitarm/bin/../lib/gcc/arm-none-eabi/5.3.0/../../../../arm-none-eabi/lib/armv6k/fpu\libg.a(lib_a-ctype_.o)
 .bss           0x00000000        0x0 c:/devkitpro/devkitarm/bin/../lib/gcc/arm-none-eabi/5.3.0/../../../../arm-none-eabi/lib/armv6k/fpu\libg.a(lib_a-ctype_.o)
 .text.__set_ctype
                0x00000000       0x18 c:/devkitpro/devkitarm/bin/../lib/gcc/arm-none-eabi/5.3.0/../../../../arm-none-eabi/lib/armv6k/fpu\libg.a(lib_a-ctype_.o)
 .comment       0x00000000       0x23 c:/devkitpro/devkitarm/bin/../lib/gcc/arm-none-eabi/5.3.0/../../../../arm-none-eabi/lib/armv6k/fpu\libg.a(lib_a-ctype_.o)
 .text          0x00000000        0x0 c:/devkitpro/devkitarm/bin/../lib/gcc/arm-none-eabi/5.3.0/../../../../arm-none-eabi/lib/armv6k/fpu\libg.a(lib_a-strchr.o)
 .data          0x00000000        0x0 c:/devkitpro/devkitarm/bin/../lib/gcc/arm-none-eabi/5.3.0/../../../../arm-none-eabi/lib/armv6k/fpu\libg.a(lib_a-strchr.o)
 .bss           0x00000000        0x0 c:/devkitpro/devkitarm/bin/../lib/gcc/arm-none-eabi/5.3.0/../../../../arm-none-eabi/lib/armv6k/fpu\libg.a(lib_a-strchr.o)
 .comment       0x00000000       0x23 c:/devkitpro/devkitarm/bin/../lib/gcc/arm-none-eabi/5.3.0/../../../../arm-none-eabi/lib/armv6k/fpu\libg.a(lib_a-strchr.o)
 .text          0x00000000        0x0 c:/devkitpro/devkitarm/bin/../lib/gcc/arm-none-eabi/5.3.0/../../../../arm-none-eabi/lib/armv6k/fpu\libg.a(lib_a-strncmp.o)
 .data          0x00000000        0x0 c:/devkitpro/devkitarm/bin/../lib/gcc/arm-none-eabi/5.3.0/../../../../arm-none-eabi/lib/armv6k/fpu\libg.a(lib_a-strncmp.o)
 .bss           0x00000000        0x0 c:/devkitpro/devkitarm/bin/../lib/gcc/arm-none-eabi/5.3.0/../../../../arm-none-eabi/lib/armv6k/fpu\libg.a(lib_a-strncmp.o)
 .comment       0x00000000       0x23 c:/devkitpro/devkitarm/bin/../lib/gcc/arm-none-eabi/5.3.0/../../../../arm-none-eabi/lib/armv6k/fpu\libg.a(lib_a-strncmp.o)
 .text          0x00000000        0x0 c:/devkitpro/devkitarm/bin/../lib/gcc/arm-none-eabi/5.3.0/../../../../arm-none-eabi/lib/armv6k/fpu\libg.a(lib_a-strnlen.o)
 .data          0x00000000        0x0 c:/devkitpro/devkitarm/bin/../lib/gcc/arm-none-eabi/5.3.0/../../../../arm-none-eabi/lib/armv6k/fpu\libg.a(lib_a-strnlen.o)
 .bss           0x00000000        0x0 c:/devkitpro/devkitarm/bin/../lib/gcc/arm-none-eabi/5.3.0/../../../../arm-none-eabi/lib/armv6k/fpu\libg.a(lib_a-strnlen.o)
 .comment       0x00000000       0x23 c:/devkitpro/devkitarm/bin/../lib/gcc/arm-none-eabi/5.3.0/../../../../arm-none-eabi/lib/armv6k/fpu\libg.a(lib_a-strnlen.o)
 .text          0x00000000        0x0 c:/devkitpro/devkitarm/bin/../lib/gcc/arm-none-eabi/5.3.0/../../../../arm-none-eabi/lib/armv6k/fpu\libg.a(lib_a-strrchr.o)
 .data          0x00000000        0x0 c:/devkitpro/devkitarm/bin/../lib/gcc/arm-none-eabi/5.3.0/../../../../arm-none-eabi/lib/armv6k/fpu\libg.a(lib_a-strrchr.o)
 .bss           0x00000000        0x0 c:/devkitpro/devkitarm/bin/../lib/gcc/arm-none-eabi/5.3.0/../../../../arm-none-eabi/lib/armv6k/fpu\libg.a(lib_a-strrchr.o)
 .comment       0x00000000       0x23 c:/devkitpro/devkitarm/bin/../lib/gcc/arm-none-eabi/5.3.0/../../../../arm-none-eabi/lib/armv6k/fpu\libg.a(lib_a-strrchr.o)
 .text          0x00000000        0x0 c:/devkitpro/devkitarm/bin/../lib/gcc/arm-none-eabi/5.3.0/armv6k/fpu/crtend.o
 .data          0x00000000        0x0 c:/devkitpro/devkitarm/bin/../lib/gcc/arm-none-eabi/5.3.0/armv6k/fpu/crtend.o
 .bss           0x00000000        0x0 c:/devkitpro/devkitarm/bin/../lib/gcc/arm-none-eabi/5.3.0/armv6k/fpu/crtend.o
 .eh_frame      0x00000000        0x4 c:/devkitpro/devkitarm/bin/../lib/gcc/arm-none-eabi/5.3.0/armv6k/fpu/crtend.o
 .jcr           0x00000000        0x4 c:/devkitpro/devkitarm/bin/../lib/gcc/arm-none-eabi/5.3.0/armv6k/fpu/crtend.o
 .comment       0x00000000       0x23 c:/devkitpro/devkitarm/bin/../lib/gcc/arm-none-eabi/5.3.0/armv6k/fpu/crtend.o
 .text          0x00000000        0x0 c:/devkitpro/devkitarm/bin/../lib/gcc/arm-none-eabi/5.3.0/armv6k/fpu/crtn.o
 .data          0x00000000        0x0 c:/devkitpro/devkitarm/bin/../lib/gcc/arm-none-eabi/5.3.0/armv6k/fpu/crtn.o
 .bss           0x00000000        0x0 c:/devkitpro/devkitarm/bin/../lib/gcc/arm-none-eabi/5.3.0/armv6k/fpu/crtn.o

Memory Configuration

Name             Origin             Length             Attributes
*default*        0x00000000         0xffffffff

Linker script and memory map

                0x00100000                . = 0x100000
                0x00100000                __start__ = .

.text           0x00100000     0xdae8
 *(.crt0)
 .crt0          0x00100000       0x94 c:/devkitpro/devkitarm/bin/../lib/gcc/arm-none-eabi/5.3.0/../../../../arm-none-eabi/lib/armv6k/fpu/3dsx_crt0.o
                0x00100000                _start
                0x00100008                __service_ptr
                0x0010000c                __apt_appid
                0x00100010                __heap_size
                0x00100014                __linear_heap_size
                0x00100018                __system_arglist
                0x0010001c                __system_runflags
 *(.init)
 .init          0x00100094        0xc c:/devkitpro/devkitarm/bin/../lib/gcc/arm-none-eabi/5.3.0/armv6k/fpu/crti.o
                0x00100094                _init
 .init          0x001000a0        0xc c:/devkitpro/devkitarm/bin/../lib/gcc/arm-none-eabi/5.3.0/armv6k/fpu/crtn.o
                0x001000ac                . = ALIGN (0x4)
 *(.text)
 .text          0x001000ac      0x108 c:/devkitpro/devkitarm/bin/../lib/gcc/arm-none-eabi/5.3.0/armv6k/fpu/crtbegin.o
 *fill*         0x001001b4        0x4 
 .text          0x001001b8      0x288 ball.o
                0x001001b8                Ball_init
                0x0010020c                Ball_render
                0x00100218                Ball_process_game
                0x0010026c                Ball_process_title
                0x00100270                Ball_check_hit_screen_top_bottom
                0x00100288                Ball_check_hit_screen_left
                0x0010029c                Ball_check_hit_screen_right
                0x001002b0                Ball_check_hit_image_left_right
                0x001002b8                Ball_check_hit_image_top_bottom
                0x001002c0                Ball_Check_Collide
 .text          0x00100440       0xe4 button.o
                0x00100440                Button_Init
                0x00100460                Button_Check_Press
                0x001004d4                Button_Action_1_Player
                0x001004e8                Button_Action_2_Players
                0x001004fc                Button_Action_Menu
                0x00100510                Button_Action_Quit
 .text          0x00100524      0x2e0 menu.o
                0x00100524                Menu_Init
                0x00100678                Menu_Process_Upper_Screen
                0x001006b4                Menu_Render_Upper_Screen
                0x001006c4                Menu_Render_Lower_Screen
                0x00100728                Menu_Process_Lower_Screen
                0x00100800                Menu_Free
 .text          0x00100804       0xec paddle.o
                0x00100804                paddle_init
                0x00100868                paddle_process
                0x001008dc                paddle_check_on_screen
 .text          0x001008f0      0x1b8 two_player_mode.o
                0x001008f0                Two_Init
                0x001009c0                Two_Process_Lower_Screen
                0x00100a10                Two_Render_Upper_Screen
                0x00100a40                Two_Process_Upper_Screen
                0x00100a98                Two_Render_Lower_Screen
 .text          0x00100aa8       0x64 c:/devkitPro/libctru/lib\libctru.a(stack_adjust.o)
                0x00100aa8                initSystem
                0x00100aec                __ctru_exit
 .text          0x00100b0c      0x250 c:/devkitpro/devkitarm/bin/../lib/gcc/arm-none-eabi/5.3.0/armv6k/fpu\libgcc.a(_arm_addsubsf3.o)
                0x00100b0c                __aeabi_frsub
                0x00100b14                __subsf3
                0x00100b14                __aeabi_fsub
                0x00100b18                __aeabi_fadd
                0x00100b18                __addsf3
                0x00100ca8                __aeabi_ui2f
                0x00100ca8                __floatunsisf
                0x00100cb0                __aeabi_i2f
                0x00100cb0                __floatsisf
                0x00100cd0                __aeabi_ul2f
                0x00100cd0                __floatundisf
                0x00100ce0                __aeabi_l2f
                0x00100ce0                __floatdisf
 .text          0x00100d5c        0x4 c:/devkitpro/devkitarm/bin/../lib/gcc/arm-none-eabi/5.3.0/armv6k/fpu\libgcc.a(_dvmd_tls.o)
                0x00100d5c                __aeabi_idiv0
                0x00100d5c                __aeabi_ldiv0
 .text          0x00100d60      0x3a0 c:/devkitpro/devkitarm/bin/../lib/gcc/arm-none-eabi/5.3.0/../../../../arm-none-eabi/lib/armv6k/fpu\libg.a(lib_a-strcmp.o)
                0x00100d68                strcmp
 .text          0x00101100      0x1c4 c:/devkitpro/devkitarm/bin/../lib/gcc/arm-none-eabi/5.3.0/../../../../arm-none-eabi/lib/armv6k/fpu\libsysbase.a(iosupport.o)
                0x00101108                setDefaultDevice
                0x00101120                FindDevice
                0x001011dc                RemoveDevice
                0x00101208                AddDevice
                0x001012a0                GetDeviceOpTab
 .text          0x001012c4       0x70 c:/devkitpro/devkitarm/bin/../lib/gcc/arm-none-eabi/5.3.0/../../../../arm-none-eabi/lib/armv6k/fpu\libsysbase.a(sbrk.o)
                0x001012c4                _sbrk_r
 .text          0x00101334      0x3b0 c:/devkitpro/devkitarm/bin/../lib/gcc/arm-none-eabi/5.3.0/../../../../arm-none-eabi/lib/armv6k/fpu\libsysbase.a(chdir.o)
                0x00101334                _concatenate_path
                0x001014f0                chdir
                0x00101644                getcwd
 .text          0x001016e4      0x108 c:/devkitpro/devkitarm/bin/../lib/gcc/arm-none-eabi/5.3.0/../../../../arm-none-eabi/lib/armv6k/fpu\libsysbase.a(syscall_support.o)
                0x001016e4                __libc_lock_init
                0x001016fc                __libc_lock_acquire
                0x00101714                __libc_lock_try_acquire
                0x00101738                __libc_lock_release
                0x00101750                __libc_lock_close
                0x00101768                __libc_lock_init_recursive
                0x00101780                __libc_lock_acquire_recursive
                0x00101798                __libc_lock_try_acquire_recursive
                0x001017bc                __libc_lock_release_recursive
                0x001017d4                __libc_lock_close_recursive
 .text          0x001017ec       0x28 c:/devkitpro/devkitarm/bin/../lib/gcc/arm-none-eabi/5.3.0/../../../../arm-none-eabi/lib/armv6k/fpu\libsysbase.a(getreent.o)
                0x001017ec                __getreent
 .text          0x00101814      0x20c c:/devkitpro/devkitarm/bin/../lib/gcc/arm-none-eabi/5.3.0/armv6k/fpu\libgcc.a(_udivsi3.o)
                0x00101814                __aeabi_uidiv
                0x00101814                __udivsi3
                0x00101a00                __aeabi_uidivmod
 *(.text.*)
 .text.startup  0x00101a20      0x110 main.o
                0x00101a20                main
 .text.sf2d_fini
                0x00101b30       0x48 c:/devkitPro/libctru/lib\libsf2d.a(sf2d.o)
                0x00101b30                sf2d_fini
 .text.sf2d_start_frame_target
                0x00101b78       0x9c c:/devkitPro/libctru/lib\libsf2d.a(sf2d.o)
                0x00101b78                sf2d_start_frame_target
 .text.sf2d_start_frame
                0x00101c14       0x38 c:/devkitPro/libctru/lib\libsf2d.a(sf2d.o)
                0x00101c14                sf2d_start_frame
 .text.sf2d_end_frame
                0x00101c4c        0x4 c:/devkitPro/libctru/lib\libsf2d.a(sf2d.o)
                0x00101c4c                sf2d_end_frame
 .text.sf2d_swapbuffers
                0x00101c50       0xb0 c:/devkitPro/libctru/lib\libsf2d.a(sf2d.o)
                0x00101c50                sf2d_swapbuffers
 .text.sf2d_pool_memalign
                0x00101d00       0x40 c:/devkitPro/libctru/lib\libsf2d.a(sf2d.o)
                0x00101d00                sf2d_pool_memalign
 .text.sf2d_set_clear_color
                0x00101d40       0x38 c:/devkitPro/libctru/lib\libsf2d.a(sf2d.o)
                0x00101d40                sf2d_set_clear_color
 .text.sf2d_init_advanced.part.0
                0x00101d78      0x1ac c:/devkitPro/libctru/lib\libsf2d.a(sf2d.o)
 .text.sf2d_init
                0x00101f24       0x28 c:/devkitPro/libctru/lib\libsf2d.a(sf2d.o)
                0x00101f24                sf2d_init
 .text.sf2d_texture_tile32_hardware.part.7
                0x00101f4c       0x70 c:/devkitPro/libctru/lib\libsf2d.a(sf2d_texture.o)
 .text.sf2d_create_texture
                0x00101fbc      0x114 c:/devkitPro/libctru/lib\libsf2d.a(sf2d_texture.o)
                0x00101fbc                sf2d_create_texture
 .text.sf2d_create_rendertarget
                0x001020d0       0x98 c:/devkitPro/libctru/lib\libsf2d.a(sf2d_texture.o)
                0x001020d0                sf2d_create_rendertarget
 .text.sf2d_clear_target
                0x00102168       0x14 c:/devkitPro/libctru/lib\libsf2d.a(sf2d_texture.o)
                0x00102168                sf2d_clear_target
 .text.sf2d_fill_texture_from_RGBA8
                0x0010217c       0xac c:/devkitPro/libctru/lib\libsf2d.a(sf2d_texture.o)
                0x0010217c                sf2d_fill_texture_from_RGBA8
 .text.sf2d_create_texture_mem_RGBA8
                0x00102228       0x44 c:/devkitPro/libctru/lib\libsf2d.a(sf2d_texture.o)
                0x00102228                sf2d_create_texture_mem_RGBA8
 .text.sf2d_bind_texture
                0x0010226c       0x54 c:/devkitPro/libctru/lib\libsf2d.a(sf2d_texture.o)
                0x0010226c                sf2d_bind_texture
 .text.sf2d_draw_texture
                0x001022c0      0x160 c:/devkitPro/libctru/lib\libsf2d.a(sf2d_texture.o)
                0x001022c0                sf2d_draw_texture
 .text.AttrInfo_Init
                0x00102420       0x28 c:/devkitPro/libctru/lib\libcitro3d.a(attribs.o)
                0x00102420                AttrInfo_Init
 .text.AttrInfo_AddLoader
                0x00102448       0xa4 c:/devkitPro/libctru/lib\libcitro3d.a(attribs.o)
                0x00102448                AttrInfo_AddLoader
 .text.C3D_GetAttrInfo
                0x001024ec       0x24 c:/devkitPro/libctru/lib\libcitro3d.a(attribs.o)
                0x001024ec                C3D_GetAttrInfo
 .text.C3Di_AttrInfoBind
                0x00102510       0x80 c:/devkitPro/libctru/lib\libcitro3d.a(attribs.o)
                0x00102510                C3Di_AttrInfoBind
 .text.C3Di_AptEventHook
                0x00102590       0x88 c:/devkitPro/libctru/lib\libcitro3d.a(base.o)
 .text.C3D_Init
                0x00102618      0x168 c:/devkitPro/libctru/lib\libcitro3d.a(base.o)
                0x00102618                C3D_Init
 .text.C3D_SetViewport
                0x00102780       0x98 c:/devkitPro/libctru/lib\libcitro3d.a(base.o)
                0x00102780                C3D_SetViewport
 .text.C3Di_UpdateContext
                0x00102818      0x580 c:/devkitPro/libctru/lib\libcitro3d.a(base.o)
                0x00102818                C3Di_UpdateContext
 .text.C3Di_FinalizeFrame
                0x00102d98       0xe0 c:/devkitPro/libctru/lib\libcitro3d.a(base.o)
                0x00102d98                C3Di_FinalizeFrame
 .text.C3D_Fini
                0x00102e78       0x48 c:/devkitPro/libctru/lib\libcitro3d.a(base.o)
                0x00102e78                C3D_Fini
 .text.C3D_BindProgram
                0x00102ec0       0xd4 c:/devkitPro/libctru/lib\libcitro3d.a(base.o)
                0x00102ec0                C3D_BindProgram
 .text.BufInfo_Init
                0x00102f94       0x20 c:/devkitPro/libctru/lib\libcitro3d.a(buffers.o)
                0x00102f94                BufInfo_Init
 .text.BufInfo_Add
                0x00102fb4       0x84 c:/devkitPro/libctru/lib\libcitro3d.a(buffers.o)
                0x00102fb4                BufInfo_Add
 .text.C3D_GetBufInfo
                0x00103038       0x24 c:/devkitPro/libctru/lib\libcitro3d.a(buffers.o)
                0x00103038                C3D_GetBufInfo
 .text.C3Di_BufInfoBind
                0x0010305c       0x48 c:/devkitPro/libctru/lib\libcitro3d.a(buffers.o)
                0x0010305c                C3Di_BufInfoBind
 .text.C3D_DrawArrays
                0x001030a4      0x148 c:/devkitPro/libctru/lib\libcitro3d.a(drawArrays.o)
                0x001030a4                C3D_DrawArrays
 .text.C3D_DepthMap
                0x001031ec       0x3c c:/devkitPro/libctru/lib\libcitro3d.a(effect.o)
                0x001031ec                C3D_DepthMap
 .text.C3D_CullFace
                0x00103228       0x1c c:/devkitPro/libctru/lib\libcitro3d.a(effect.o)
                0x00103228                C3D_CullFace
 .text.C3D_StencilTest
                0x00103244       0x3c c:/devkitPro/libctru/lib\libcitro3d.a(effect.o)
                0x00103244                C3D_StencilTest
 .text.C3D_StencilOp
                0x00103280       0x24 c:/devkitPro/libctru/lib\libcitro3d.a(effect.o)
                0x00103280                C3D_StencilOp
 .text.C3D_BlendingColor
                0x001032a4       0x1c c:/devkitPro/libctru/lib\libcitro3d.a(effect.o)
                0x001032a4                C3D_BlendingColor
 .text.C3D_DepthTest
                0x001032c0       0x28 c:/devkitPro/libctru/lib\libcitro3d.a(effect.o)
                0x001032c0                C3D_DepthTest
 .text.C3D_AlphaTest
                0x001032e8       0x28 c:/devkitPro/libctru/lib\libcitro3d.a(effect.o)
                0x001032e8                C3D_AlphaTest
 .text.C3D_AlphaBlend
                0x00103310       0x50 c:/devkitPro/libctru/lib\libcitro3d.a(effect.o)
                0x00103310                C3D_AlphaBlend
 .text.C3D_FragOpMode
                0x00103360       0x30 c:/devkitPro/libctru/lib\libcitro3d.a(effect.o)
                0x00103360                C3D_FragOpMode
 .text.C3Di_EffectBind
                0x00103390      0x11c c:/devkitPro/libctru/lib\libcitro3d.a(effect.o)
                0x00103390                C3Di_EffectBind
 .text.C3D_ImmSendAttrib
                0x001034ac       0xb4 c:/devkitPro/libctru/lib\libcitro3d.a(immediate.o)
                0x001034ac                C3D_ImmSendAttrib
 .text.C3D_RenderBufInit
                0x00103560       0xa4 c:/devkitPro/libctru/lib\libcitro3d.a(renderbuffer.o)
                0x00103560                C3D_RenderBufInit
 .text.C3D_RenderBufClearAsync
                0x00103604       0x80 c:/devkitPro/libctru/lib\libcitro3d.a(renderbuffer.o)
                0x00103604                C3D_RenderBufClearAsync
 .text.C3D_RenderBufTransferAsync
                0x00103684       0x28 c:/devkitPro/libctru/lib\libcitro3d.a(renderbuffer.o)
                0x00103684                C3D_RenderBufTransferAsync
 .text.C3D_RenderBufBind
                0x001036ac       0x38 c:/devkitPro/libctru/lib\libcitro3d.a(renderbuffer.o)
                0x001036ac                C3D_RenderBufBind
 .text.C3Di_RenderBufBind
                0x001036e4      0x168 c:/devkitPro/libctru/lib\libcitro3d.a(renderbuffer.o)
                0x001036e4                C3Di_RenderBufBind
 .text.C3D_RenderBufDelete
                0x0010384c       0x18 c:/devkitPro/libctru/lib\libcitro3d.a(renderbuffer.o)
                0x0010384c                C3D_RenderBufDelete
 .text.C3Di_RenderQueueWaitDone
                0x00103864       0x40 c:/devkitPro/libctru/lib\libcitro3d.a(renderqueue.o)
 .text.performTransfer.part.0
                0x001038a4       0x78 c:/devkitPro/libctru/lib\libcitro3d.a(renderqueue.o)
 .text.transferTarget
                0x0010391c       0x50 c:/devkitPro/libctru/lib\libcitro3d.a(renderqueue.o)
 .text.onVBlank1
                0x0010396c       0x24 c:/devkitPro/libctru/lib\libcitro3d.a(renderqueue.o)
 .text.onVBlank0
                0x00103990       0x8c c:/devkitPro/libctru/lib\libcitro3d.a(renderqueue.o)
 .text.performClear.part.2
                0x00103a1c       0x3c c:/devkitPro/libctru/lib\libcitro3d.a(renderqueue.o)
 .text.clearTarget
                0x00103a58       0x4c c:/devkitPro/libctru/lib\libcitro3d.a(renderqueue.o)
 .text.updateFrameQueue.part.4
                0x00103aa4       0xc0 c:/devkitPro/libctru/lib\libcitro3d.a(renderqueue.o)
 .text.onRenderFinish
                0x00103b64       0xe0 c:/devkitPro/libctru/lib\libcitro3d.a(renderqueue.o)
 .text.onClearDone.part.6
                0x00103c44       0x18 c:/devkitPro/libctru/lib\libcitro3d.a(renderqueue.o)
 .text.onTransferFinish
                0x00103c5c       0xb0 c:/devkitPro/libctru/lib\libcitro3d.a(renderqueue.o)
 .text.onClearDone
                0x00103d0c       0x64 c:/devkitPro/libctru/lib\libcitro3d.a(renderqueue.o)
 .text.checkRenderQueueInit.part.7
                0x00103d70       0x5c c:/devkitPro/libctru/lib\libcitro3d.a(renderqueue.o)
 .text.C3D_FrameBegin
                0x00103dcc       0x64 c:/devkitPro/libctru/lib\libcitro3d.a(renderqueue.o)
                0x00103dcc                C3D_FrameBegin
 .text.C3D_FrameDrawOn
                0x00103e30       0x78 c:/devkitPro/libctru/lib\libcitro3d.a(renderqueue.o)
                0x00103e30                C3D_FrameDrawOn
 .text.C3D_FrameEnd
                0x00103ea8       0xd0 c:/devkitPro/libctru/lib\libcitro3d.a(renderqueue.o)
                0x00103ea8                C3D_FrameEnd
 .text.C3D_RenderTargetCreate
                0x00103f78       0xe0 c:/devkitPro/libctru/lib\libcitro3d.a(renderqueue.o)
                0x00103f78                C3D_RenderTargetCreate
 .text.C3D_RenderTargetDelete
                0x00104058       0x7c c:/devkitPro/libctru/lib\libcitro3d.a(renderqueue.o)
                0x00104058                C3D_RenderTargetDelete
 .text.C3Di_RenderQueueExit
                0x001040d4       0x84 c:/devkitPro/libctru/lib\libcitro3d.a(renderqueue.o)
 .text.C3D_RenderTargetSetClear
                0x00104158       0x50 c:/devkitPro/libctru/lib\libcitro3d.a(renderqueue.o)
                0x00104158                C3D_RenderTargetSetClear
 .text.C3D_RenderTargetSetOutput
                0x001041a8       0x58 c:/devkitPro/libctru/lib\libcitro3d.a(renderqueue.o)
                0x001041a8                C3D_RenderTargetSetOutput
 .text.C3D_SafeDisplayTransfer
                0x00104200       0x88 c:/devkitPro/libctru/lib\libcitro3d.a(renderqueue.o)
                0x00104200                C3D_SafeDisplayTransfer
 .text.TexEnv_Init
                0x00104288       0x34 c:/devkitPro/libctru/lib\libcitro3d.a(texenv.o)
                0x00104288                TexEnv_Init
 .text.C3D_GetTexEnv
                0x001042bc       0x34 c:/devkitPro/libctru/lib\libcitro3d.a(texenv.o)
                0x001042bc                C3D_GetTexEnv
 .text.C3Di_TexEnvBind
                0x001042f0       0x24 c:/devkitPro/libctru/lib\libcitro3d.a(texenv.o)
                0x001042f0                C3Di_TexEnvBind
 .text.C3D_TexInit
                0x00104314       0xb8 c:/devkitPro/libctru/lib\libcitro3d.a(texture.o)
                0x00104314                C3D_TexInit
 .text.C3D_TexInitVRAM
                0x001043cc       0xb8 c:/devkitPro/libctru/lib\libcitro3d.a(texture.o)
                0x001043cc                C3D_TexInitVRAM
 .text.C3D_TexSetWrap
                0x00104484       0x24 c:/devkitPro/libctru/lib\libcitro3d.a(texture.o)
                0x00104484                C3D_TexSetWrap
 .text.C3D_TexBind
                0x001044a8       0x34 c:/devkitPro/libctru/lib\libcitro3d.a(texture.o)
                0x001044a8                C3D_TexBind
 .text.C3D_TexDelete
                0x001044dc       0x3c c:/devkitPro/libctru/lib\libcitro3d.a(texture.o)
                0x001044dc                C3D_TexDelete
 .text.C3D_UpdateUniforms
                0x00104518      0x2ac c:/devkitPro/libctru/lib\libcitro3d.a(uniforms.o)
                0x00104518                C3D_UpdateUniforms
 .text.C3Di_DirtyUniforms
                0x001047c4       0xc0 c:/devkitPro/libctru/lib\libcitro3d.a(uniforms.o)
                0x001047c4                C3Di_DirtyUniforms
 .text.C3Di_LoadShaderUniforms
                0x00104884       0xe4 c:/devkitPro/libctru/lib\libcitro3d.a(uniforms.o)
                0x00104884                C3Di_LoadShaderUniforms
 .text.C3Di_ClearShaderUniforms
                0x00104968       0x28 c:/devkitPro/libctru/lib\libcitro3d.a(uniforms.o)
                0x00104968                C3Di_ClearShaderUniforms
 .text.Mtx_OrthoTilt
                0x00104990      0x104 c:/devkitPro/libctru/lib\libcitro3d.a(mtx_orthotilt.o)
                0x00104990                Mtx_OrthoTilt
 .text.Mtx_Identity
                0x00104a94       0x2c c:/devkitPro/libctru/lib\libcitro3d.a(mtx_identity.o)
                0x00104a94                Mtx_Identity
 .text.Mtx_Multiply
                0x00104ac0       0x70 c:/devkitPro/libctru/lib\libcitro3d.a(mtx_multiply.o)
                0x00104ac0                Mtx_Multiply
 .text._ZL21addrMapNodeComparatorPK11rbtree_nodeS1_
                0x00104b30       0x24 c:/devkitPro/libctru/lib\libctru.a(linear.o)
 .text._ZL21addrMapNodeDestructorP11rbtree_node
                0x00104b54        0x4 c:/devkitPro/libctru/lib\libctru.a(linear.o)
 .text.linearMemAlign
                0x00104b58      0x140 c:/devkitPro/libctru/lib\libctru.a(linear.o)
                0x00104b58                linearMemAlign
 .text.linearAlloc
                0x00104c98        0x8 c:/devkitPro/libctru/lib\libctru.a(linear.o)
                0x00104c98                linearAlloc
 .text.linearFree
                0x00104ca0       0x50 c:/devkitPro/libctru/lib\libctru.a(linear.o)
                0x00104ca0                linearFree
 .text._ZN7MemPool13CoalesceRightEP8MemBlock
                0x00104cf0       0xa0 c:/devkitPro/libctru/lib\libctru.a(mem_pool.o)
                0x00104cf0                MemPool::CoalesceRight(MemBlock*)
 .text._ZN7MemPool8AllocateER8MemChunkmi
                0x00104d90      0x18c c:/devkitPro/libctru/lib\libctru.a(mem_pool.o)
                0x00104d90                MemPool::Allocate(MemChunk&, unsigned long, int)
 .text._ZN7MemPool10DeallocateERK8MemChunk
                0x00104f1c      0x104 c:/devkitPro/libctru/lib\libctru.a(mem_pool.o)
                0x00104f1c                MemPool::Deallocate(MemChunk const&)
 .text._ZL21addrMapNodeComparatorPK11rbtree_nodeS1_
                0x00105020       0x24 c:/devkitPro/libctru/lib\libctru.a(vram.o)
 .text._ZL21addrMapNodeDestructorP11rbtree_node
                0x00105044        0x4 c:/devkitPro/libctru/lib\libctru.a(vram.o)
 .text.vramMemAlign
                0x00105048      0x130 c:/devkitPro/libctru/lib\libctru.a(vram.o)
                0x00105048                vramMemAlign
 .text.vramAlloc
                0x00105178        0x8 c:/devkitPro/libctru/lib\libctru.a(vram.o)
                0x00105178                vramAlloc
 .text.vramFree
                0x00105180       0x50 c:/devkitPro/libctru/lib\libctru.a(vram.o)
                0x00105180                vramFree
 .text.gfxSetFramebufferInfo.part.0
                0x001051d0       0x8c c:/devkitPro/libctru/lib\libctru.a(gfx.o)
 .text.gfxSet3D
                0x0010525c       0x10 c:/devkitPro/libctru/lib\libctru.a(gfx.o)
                0x0010525c                gfxSet3D
 .text.gfxIs3D  0x0010526c       0x10 c:/devkitPro/libctru/lib\libctru.a(gfx.o)
                0x0010526c                gfxIs3D
 .text.__get_bytes_per_pixel
                0x0010527c       0x18 c:/devkitPro/libctru/lib\libctru.a(gfx.o)
                0x0010527c                __get_bytes_per_pixel
 .text.gfxSetFramebufferInfo
                0x00105294       0x70 c:/devkitPro/libctru/lib\libctru.a(gfx.o)
                0x00105294                gfxSetFramebufferInfo
 .text.gfxWriteFramebufferInfo
                0x00105304       0x88 c:/devkitPro/libctru/lib\libctru.a(gfx.o)
                0x00105304                gfxWriteFramebufferInfo
 .text.gfxInit  0x0010538c      0x1d0 c:/devkitPro/libctru/lib\libctru.a(gfx.o)
                0x0010538c                gfxInit
 .text.gfxInitDefault
                0x0010555c       0x10 c:/devkitPro/libctru/lib\libctru.a(gfx.o)
                0x0010555c                gfxInitDefault
 .text.gfxExit  0x0010556c       0xe0 c:/devkitPro/libctru/lib\libctru.a(gfx.o)
                0x0010556c                gfxExit
 .text.gfxGetFramebuffer
                0x0010564c       0xb0 c:/devkitPro/libctru/lib\libctru.a(gfx.o)
                0x0010564c                gfxGetFramebuffer
 .text.gfxConfigScreen
                0x001056fc       0x70 c:/devkitPro/libctru/lib\libctru.a(gfx.o)
                0x001056fc                gfxConfigScreen
 .text.getSysTime
                0x0010576c       0x58 c:/devkitPro/libctru/lib\libctru.a(os.o)
 .text.osConvertVirtToPhys
                0x001057c4       0x4c c:/devkitPro/libctru/lib\libctru.a(os.o)
                0x001057c4                osConvertVirtToPhys
 .text.osGetMemRegionUsed
                0x00105810       0x24 c:/devkitPro/libctru/lib\libctru.a(os.o)
                0x00105810                osGetMemRegionUsed
 *fill*         0x00105834        0x4 
 .text.__libctru_gtod
                0x00105838       0xf8 c:/devkitPro/libctru/lib\libctru.a(os.o)
                0x00105838                __libctru_gtod
 .text.osGetTime
                0x00105930       0x78 c:/devkitPro/libctru/lib\libctru.a(os.o)
                0x00105930                osGetTime
 .text.__ctru_speedup_config
                0x001059a8       0x34 c:/devkitPro/libctru/lib\libctru.a(os.o)
                0x001059a8                __ctru_speedup_config
 .text.GPUCMD_SetBuffer
                0x001059dc       0x2c c:/devkitPro/libctru/lib\libctru.a(gpu.o)
                0x001059dc                GPUCMD_SetBuffer
 .text.GPUCMD_GetBuffer
                0x00105a08       0x40 c:/devkitPro/libctru/lib\libctru.a(gpu.o)
                0x00105a08                GPUCMD_GetBuffer
 .text.GPUCMD_Add
                0x00105a48       0xe4 c:/devkitPro/libctru/lib\libctru.a(gpu.o)
                0x00105a48                GPUCMD_Add
 .text.GPUCMD_Finalize
                0x00105b2c       0x98 c:/devkitPro/libctru/lib\libctru.a(gpu.o)
                0x00105b2c                GPUCMD_Finalize
 .text.f32tof24
                0x00105bc4       0x40 c:/devkitPro/libctru/lib\libctru.a(gpu.o)
                0x00105bc4                f32tof24
 .text.f32tof31
                0x00105c04       0x40 c:/devkitPro/libctru/lib\libctru.a(gpu.o)
                0x00105c04                f32tof31
 .text.GX_ProcessCommandList
                0x00105c44       0x54 c:/devkitPro/libctru/lib\libctru.a(gx.o)
                0x00105c44                GX_ProcessCommandList
 .text.GX_MemoryFill
                0x00105c98       0x60 c:/devkitPro/libctru/lib\libctru.a(gx.o)
                0x00105c98                GX_MemoryFill
 .text.GX_DisplayTransfer
                0x00105cf8       0x50 c:/devkitPro/libctru/lib\libctru.a(gx.o)
                0x00105cf8                GX_DisplayTransfer
 .text.GX_FlushCacheRegions
                0x00105d48       0x54 c:/devkitPro/libctru/lib\libctru.a(gx.o)
                0x00105d48                GX_FlushCacheRegions
 .text.GPU_SetShaderOutmap
                0x00105d9c       0x48 c:/devkitPro/libctru/lib\libctru.a(shaderProgram.o)
 .text.GPU_SendShaderCode.constprop.0
                0x00105de4       0xb8 c:/devkitPro/libctru/lib\libctru.a(shaderProgram.o)
 .text.GPU_SendOperandDescriptors.constprop.1
                0x00105e9c       0x70 c:/devkitPro/libctru/lib\libctru.a(shaderProgram.o)
 .text.shaderInstanceInit
                0x00105f0c      0x23c c:/devkitPro/libctru/lib\libctru.a(shaderProgram.o)
                0x00105f0c                shaderInstanceInit
 .text.shaderInstanceFree
                0x00106148       0x38 c:/devkitPro/libctru/lib\libctru.a(shaderProgram.o)
                0x00106148                shaderInstanceFree
 .text.shaderInstanceGetUniformLocation
                0x00106180       0x18 c:/devkitPro/libctru/lib\libctru.a(shaderProgram.o)
                0x00106180                shaderInstanceGetUniformLocation
 .text.shaderProgramInit
                0x00106198       0x18 c:/devkitPro/libctru/lib\libctru.a(shaderProgram.o)
                0x00106198                shaderProgramInit
 .text.shaderProgramFree
                0x001061b0       0x30 c:/devkitPro/libctru/lib\libctru.a(shaderProgram.o)
                0x001061b0                shaderProgramFree
 .text.shaderProgramSetVsh
                0x001061e0       0x6c c:/devkitPro/libctru/lib\libctru.a(shaderProgram.o)
                0x001061e0                shaderProgramSetVsh
 .text.shaderProgramConfigure
                0x0010624c      0x340 c:/devkitPro/libctru/lib\libctru.a(shaderProgram.o)
                0x0010624c                shaderProgramConfigure
 .text.DVLB_Free
                0x0010658c       0x3c c:/devkitPro/libctru/lib\libctru.a(shbin.o)
                0x0010658c                DVLB_Free
 .text.DVLE_GetUniformRegister
                0x001065c8       0x80 c:/devkitPro/libctru/lib\libctru.a(shbin.o)
                0x001065c8                DVLE_GetUniformRegister
 .text.DVLE_GenerateOutmap
                0x00106648      0x198 c:/devkitPro/libctru/lib\libctru.a(shbin.o)
                0x00106648                DVLE_GenerateOutmap
 .text.DVLB_ParseFile
                0x001067e0      0x198 c:/devkitPro/libctru/lib\libctru.a(shbin.o)
                0x001067e0                DVLB_ParseFile
 .text._aptDebug
                0x00106978        0x4 c:/devkitPro/libctru/lib\libctru.a(apt.o)
                0x00106978                _aptDebug
 .text.aptSendCommand
                0x0010697c      0x12c c:/devkitPro/libctru/lib\libctru.a(apt.o)
                0x0010697c                aptSendCommand
 .text.aptExitProcess
                0x00106aa8       0x3c c:/devkitPro/libctru/lib\libctru.a(apt.o)
 .text.aptHook  0x00106ae4       0x38 c:/devkitPro/libctru/lib\libctru.a(apt.o)
                0x00106ae4                aptHook
 .text.aptUnhook
                0x00106b1c       0x2c c:/devkitPro/libctru/lib\libctru.a(apt.o)
                0x00106b1c                aptUnhook
 .text.APT_InquireNotification
                0x00106b48       0x4c c:/devkitPro/libctru/lib\libctru.a(apt.o)
                0x00106b48                APT_InquireNotification
 .text.aptEventHandler
                0x00106b94      0x198 c:/devkitPro/libctru/lib\libctru.a(apt.o)
 .text.APT_AppletUtility
                0x00106d2c       0x74 c:/devkitPro/libctru/lib\libctru.a(apt.o)
                0x00106d2c                APT_AppletUtility
 .text.aptSetSleepAllowed
                0x00106da0       0xb0 c:/devkitPro/libctru/lib\libctru.a(apt.o)
                0x00106da0                aptSetSleepAllowed
 .text.APT_GlanceParameter
                0x00106e50       0xb4 c:/devkitPro/libctru/lib\libctru.a(apt.o)
                0x00106e50                APT_GlanceParameter
 .text.APT_ReceiveParameter
                0x00106f04       0xc0 c:/devkitPro/libctru/lib\libctru.a(apt.o)
                0x00106f04                APT_ReceiveParameter
 .text.aptReceiveParameter.constprop.1
                0x00106fc4       0xa8 c:/devkitPro/libctru/lib\libctru.a(apt.o)
 *fill*         0x0010706c        0x4 
 .text.aptScreenTransfer
                0x00107070      0x1e0 c:/devkitPro/libctru/lib\libctru.a(apt.o)
 .text.aptWaitForWakeUp
                0x00107250      0x224 c:/devkitPro/libctru/lib\libctru.a(apt.o)
 .text.APT_CancelParameter
                0x00107474       0x70 c:/devkitPro/libctru/lib\libctru.a(apt.o)
                0x00107474                APT_CancelParameter
 .text.aptInit  0x001074e4      0x21c c:/devkitPro/libctru/lib\libctru.a(apt.o)
                0x001074e4                aptInit
 .text.aptClearParamQueue
                0x00107700       0x88 c:/devkitPro/libctru/lib\libctru.a(apt.o)
 .text.aptMainLoop
                0x00107788      0x208 c:/devkitPro/libctru/lib\libctru.a(apt.o)
                0x00107788                aptMainLoop
 .text.aptExit  0x00107990      0x148 c:/devkitPro/libctru/lib\libctru.a(apt.o)
                0x00107990                aptExit
 .text.APT_CheckNew3DS
                0x00107ad8       0x70 c:/devkitPro/libctru/lib\libctru.a(apt.o)
                0x00107ad8                APT_CheckNew3DS
 .text.gspEventThreadMain
                0x00107b48      0x154 c:/devkitPro/libctru/lib\libctru.a(gspgpu.o)
 .text.gspInit  0x00107c9c       0x74 c:/devkitPro/libctru/lib\libctru.a(gspgpu.o)
                0x00107c9c                gspInit
 .text.gspExit  0x00107d10       0x3c c:/devkitPro/libctru/lib\libctru.a(gspgpu.o)
                0x00107d10                gspExit
 .text.gspSetEventCallback
                0x00107d4c       0x2c c:/devkitPro/libctru/lib\libctru.a(gspgpu.o)
                0x00107d4c                gspSetEventCallback
 .text.gspInitEventHandler
                0x00107d78       0x84 c:/devkitPro/libctru/lib\libctru.a(gspgpu.o)
                0x00107d78                gspInitEventHandler
 .text.gspExitEventHandler
                0x00107dfc       0x30 c:/devkitPro/libctru/lib\libctru.a(gspgpu.o)
                0x00107dfc                gspExitEventHandler
 .text.gspWaitForEvent
                0x00107e2c       0x44 c:/devkitPro/libctru/lib\libctru.a(gspgpu.o)
                0x00107e2c                gspWaitForEvent
 .text.gspWaitForAnyEvent
                0x00107e70       0x64 c:/devkitPro/libctru/lib\libctru.a(gspgpu.o)
                0x00107e70                gspWaitForAnyEvent
 .text.gspSubmitGxCommand
                0x00107ed4      0x128 c:/devkitPro/libctru/lib\libctru.a(gspgpu.o)
                0x00107ed4                gspSubmitGxCommand
 .text.GSPGPU_SetBufferSwap
                0x00107ffc       0x6c c:/devkitPro/libctru/lib\libctru.a(gspgpu.o)
                0x00107ffc                GSPGPU_SetBufferSwap
 .text.GSPGPU_FlushDataCache
                0x00108068       0x4c c:/devkitPro/libctru/lib\libctru.a(gspgpu.o)
                0x00108068                GSPGPU_FlushDataCache
 .text.GSPGPU_SetLcdForceBlack
                0x001080b4       0x34 c:/devkitPro/libctru/lib\libctru.a(gspgpu.o)
                0x001080b4                GSPGPU_SetLcdForceBlack
 .text.GSPGPU_RegisterInterruptRelayQueue
                0x001080e8       0x64 c:/devkitPro/libctru/lib\libctru.a(gspgpu.o)
                0x001080e8                GSPGPU_RegisterInterruptRelayQueue
 .text.GSPGPU_UnregisterInterruptRelayQueue
                0x0010814c       0x2c c:/devkitPro/libctru/lib\libctru.a(gspgpu.o)
                0x0010814c                GSPGPU_UnregisterInterruptRelayQueue
 .text.GSPGPU_AcquireRight
                0x00108178       0x48 c:/devkitPro/libctru/lib\libctru.a(gspgpu.o)
                0x00108178                GSPGPU_AcquireRight
 .text.GSPGPU_ReleaseRight
                0x001081c0       0x2c c:/devkitPro/libctru/lib\libctru.a(gspgpu.o)
                0x001081c0                GSPGPU_ReleaseRight
 .text.GSPGPU_ImportDisplayCaptureInfo
                0x001081ec       0x80 c:/devkitPro/libctru/lib\libctru.a(gspgpu.o)
                0x001081ec                GSPGPU_ImportDisplayCaptureInfo
 .text.GSPGPU_SaveVramSysArea
                0x0010826c       0x2c c:/devkitPro/libctru/lib\libctru.a(gspgpu.o)
                0x0010826c                GSPGPU_SaveVramSysArea
 .text.GSPGPU_RestoreVramSysArea
                0x00108298       0x2c c:/devkitPro/libctru/lib\libctru.a(gspgpu.o)
                0x00108298                GSPGPU_RestoreVramSysArea
 .text.hidExit  0x001082c4       0xd8 c:/devkitPro/libctru/lib\libctru.a(hid.o)
                0x001082c4                hidExit
 .text.hidScanInput
                0x0010839c      0x238 c:/devkitPro/libctru/lib\libctru.a(hid.o)
                0x0010839c                hidScanInput
 .text.hidKeysHeld
                0x001085d4       0x10 c:/devkitPro/libctru/lib\libctru.a(hid.o)
                0x001085d4                hidKeysHeld
 .text.hidKeysDown
                0x001085e4       0x10 c:/devkitPro/libctru/lib\libctru.a(hid.o)
                0x001085e4                hidKeysDown
 .text.hidTouchRead
                0x001085f4       0x18 c:/devkitPro/libctru/lib\libctru.a(hid.o)
                0x001085f4                hidTouchRead
 .text.HIDUSER_GetHandles
                0x0010860c       0x90 c:/devkitPro/libctru/lib\libctru.a(hid.o)
                0x0010860c                HIDUSER_GetHandles
 .text.hidInit  0x0010869c      0x184 c:/devkitPro/libctru/lib\libctru.a(hid.o)
                0x0010869c                hidInit
 .text.irrstScanInput
                0x00108820       0xb0 c:/devkitPro/libctru/lib\libctru.a(irrst.o)
                0x00108820                irrstScanInput
 .text.irrstKeysHeld
                0x001088d0       0x1c c:/devkitPro/libctru/lib\libctru.a(irrst.o)
                0x001088d0                irrstKeysHeld
 .text.IRRST_GetHandles
                0x001088ec       0x50 c:/devkitPro/libctru/lib\libctru.a(irrst.o)
                0x001088ec                IRRST_GetHandles
 .text.irrstInit
                0x0010893c      0x148 c:/devkitPro/libctru/lib\libctru.a(irrst.o)
                0x0010893c                irrstInit
 .text.IRRST_Shutdown
                0x00108a84       0x2c c:/devkitPro/libctru/lib\libctru.a(irrst.o)
                0x00108a84                IRRST_Shutdown
 .text.irrstExit
                0x00108ab0       0xb0 c:/devkitPro/libctru/lib\libctru.a(irrst.o)
                0x00108ab0                irrstExit
 .text.ptmSysmInit
                0x00108b60       0x70 c:/devkitPro/libctru/lib\libctru.a(ptmsysm.o)
                0x00108b60                ptmSysmInit
 .text.ptmSysmExit
                0x00108bd0       0x34 c:/devkitPro/libctru/lib\libctru.a(ptmsysm.o)
                0x00108bd0                ptmSysmExit
 .text.PTMSYSM_ConfigureNew3DSCPU
                0x00108c04       0x34 c:/devkitPro/libctru/lib\libctru.a(ptmsysm.o)
                0x00108c04                PTMSYSM_ConfigureNew3DSCPU
 .text.rbtree_find
                0x00108c38       0x70 c:/devkitPro/libctru/lib\libctru.a(rbtree_find.o)
                0x00108c38                rbtree_find
 .text.rbtree_init
                0x00108ca8       0x14 c:/devkitPro/libctru/lib\libctru.a(rbtree_init.o)
                0x00108ca8                rbtree_init
 .text.do_insert
                0x00108cbc      0x1d4 c:/devkitPro/libctru/lib\libctru.a(rbtree_insert.o)
 .text.rbtree_insert
                0x00108e90        0x8 c:/devkitPro/libctru/lib\libctru.a(rbtree_insert.o)
                0x00108e90                rbtree_insert
 .text.rbtree_remove
                0x00108e98      0x35c c:/devkitPro/libctru/lib\libctru.a(rbtree_remove.o)
                0x00108e98                rbtree_remove
 .text.rbtree_rotate
                0x001091f4       0xac c:/devkitPro/libctru/lib\libctru.a(rbtree_rotate.o)
                0x001091f4                rbtree_rotate
 .text.osGetMemRegionSize
                0x001092a0       0x58 c:/devkitPro/libctru/lib\libctru.a(allocateHeaps.o)
 .text.__system_allocateHeaps
                0x001092f8      0x124 c:/devkitPro/libctru/lib\libctru.a(allocateHeaps.o)
                0x001092f8                __system_allocateHeaps
 .text.__system_initArgv
                0x0010941c       0xf4 c:/devkitPro/libctru/lib\libctru.a(initArgv.o)
                0x0010941c                __system_initArgv
 .text.__libctru_init
                0x00109510       0x38 c:/devkitPro/libctru/lib\libctru.a(initSystem.o)
                0x00109510                __libctru_init
 .text.__ctru_get_reent
                0x00109548       0x30 c:/devkitPro/libctru/lib\libctru.a(syscalls.o)
 .text.__system_initSyscalls
                0x00109578       0xe8 c:/devkitPro/libctru/lib\libctru.a(syscalls.o)
                0x00109578                __system_initSyscalls
 .text.svcControlMemory
                0x00109660       0x20 c:/devkitPro/libctru/lib\libctru.a(svc.o)
                0x00109660                svcControlMemory
 .text.svcExitProcess
                0x00109680        0x8 c:/devkitPro/libctru/lib\libctru.a(svc.o)
                0x00109680                svcExitProcess
 .text.svcCreateThread
                0x00109688       0x20 c:/devkitPro/libctru/lib\libctru.a(svc.o)
                0x00109688                svcCreateThread
 .text.svcExitThread
                0x001096a8        0x8 c:/devkitPro/libctru/lib\libctru.a(svc.o)
                0x001096a8                svcExitThread
 .text.svcSleepThread
                0x001096b0        0x8 c:/devkitPro/libctru/lib\libctru.a(svc.o)
                0x001096b0                svcSleepThread
 .text.svcReleaseMutex
                0x001096b8        0x8 c:/devkitPro/libctru/lib\libctru.a(svc.o)
                0x001096b8                svcReleaseMutex
 .text.svcCreateEvent
                0x001096c0       0x14 c:/devkitPro/libctru/lib\libctru.a(svc.o)
                0x001096c0                svcCreateEvent
 .text.svcSignalEvent
                0x001096d4        0x8 c:/devkitPro/libctru/lib\libctru.a(svc.o)
                0x001096d4                svcSignalEvent
 .text.svcClearEvent
                0x001096dc        0x8 c:/devkitPro/libctru/lib\libctru.a(svc.o)
                0x001096dc                svcClearEvent
 .text.svcMapMemoryBlock
                0x001096e4        0x8 c:/devkitPro/libctru/lib\libctru.a(svc.o)
                0x001096e4                svcMapMemoryBlock
 .text.svcUnmapMemoryBlock
                0x001096ec        0x8 c:/devkitPro/libctru/lib\libctru.a(svc.o)
                0x001096ec                svcUnmapMemoryBlock
 .text.svcCreateAddressArbiter
                0x001096f4       0x14 c:/devkitPro/libctru/lib\libctru.a(svc.o)
                0x001096f4                svcCreateAddressArbiter
 .text.svcArbitrateAddress
                0x00109708       0x18 c:/devkitPro/libctru/lib\libctru.a(svc.o)
                0x00109708                svcArbitrateAddress
 .text.svcCloseHandle
                0x00109720        0x8 c:/devkitPro/libctru/lib\libctru.a(svc.o)
                0x00109720                svcCloseHandle
 .text.svcWaitSynchronization
                0x00109728        0x8 c:/devkitPro/libctru/lib\libctru.a(svc.o)
                0x00109728                svcWaitSynchronization
 .text.svcWaitSynchronizationN
                0x00109730       0x28 c:/devkitPro/libctru/lib\libctru.a(svc.o)
                0x00109730                svcWaitSynchronizationN
 .text.svcDuplicateHandle
                0x00109758       0x14 c:/devkitPro/libctru/lib\libctru.a(svc.o)
                0x00109758                svcDuplicateHandle
 .text.svcGetSystemTick
                0x0010976c        0x8 c:/devkitPro/libctru/lib\libctru.a(svc.o)
                0x0010976c                svcGetSystemTick
 .text.svcGetSystemInfo
                0x00109774       0x18 c:/devkitPro/libctru/lib\libctru.a(svc.o)
                0x00109774                svcGetSystemInfo
 .text.svcConnectToPort
                0x0010978c       0x14 c:/devkitPro/libctru/lib\libctru.a(svc.o)
                0x0010978c                svcConnectToPort
 .text.svcSendSyncRequest
                0x001097a0        0x8 c:/devkitPro/libctru/lib\libctru.a(svc.o)
                0x001097a0                svcSendSyncRequest
 .text.svcBreak
                0x001097a8        0x8 c:/devkitPro/libctru/lib\libctru.a(svc.o)
                0x001097a8                svcBreak
 .text._ZL21addrMapNodeComparatorPK11rbtree_nodeS1_
                0x001097b0       0x24 c:/devkitPro/libctru/lib\libctru.a(mappable.o)
 .text._ZL21addrMapNodeDestructorP11rbtree_node
                0x001097d4        0x4 c:/devkitPro/libctru/lib\libctru.a(mappable.o)
 .text.mappableAlloc
                0x001097d8       0xf4 c:/devkitPro/libctru/lib\libctru.a(mappable.o)
                0x001097d8                mappableAlloc
 .text.mappableFree
                0x001098cc       0x50 c:/devkitPro/libctru/lib\libctru.a(mappable.o)
                0x001098cc                mappableFree
 .text.envGetHandle
                0x0010991c       0x94 c:/devkitPro/libctru/lib\libctru.a(env.o)
                0x0010991c                envGetHandle
 .text.envDestroyHandles
                0x001099b0       0x4c c:/devkitPro/libctru/lib\libctru.a(env.o)
                0x001099b0                envDestroyHandles
 .text.srvExit  0x001099fc       0x50 c:/devkitPro/libctru/lib\libctru.a(srv.o)
                0x001099fc                srvExit
 .text.srvRegisterClient
                0x00109a4c       0x38 c:/devkitPro/libctru/lib\libctru.a(srv.o)
                0x00109a4c                srvRegisterClient
 .text.srvInit  0x00109a84       0x70 c:/devkitPro/libctru/lib\libctru.a(srv.o)
                0x00109a84                srvInit
 .text.srvGetServiceHandleDirect
                0x00109af4       0x68 c:/devkitPro/libctru/lib\libctru.a(srv.o)
                0x00109af4                srvGetServiceHandleDirect
 .text.srvGetServiceHandle
                0x00109b5c       0x38 c:/devkitPro/libctru/lib\libctru.a(srv.o)
                0x00109b5c                srvGetServiceHandle
 .text.LightLock_Unlock.part.1
                0x00109b94       0x34 c:/devkitPro/libctru/lib\libctru.a(synchronization.o)
 .text.__sync_init
                0x00109bc8        0xc c:/devkitPro/libctru/lib\libctru.a(synchronization.o)
                0x00109bc8                __sync_init
 .text.__sync_fini
                0x00109bd4       0x18 c:/devkitPro/libctru/lib\libctru.a(synchronization.o)
                0x00109bd4                __sync_fini
 .text.__sync_get_arbiter
                0x00109bec       0x10 c:/devkitPro/libctru/lib\libctru.a(synchronization.o)
                0x00109bec                __sync_get_arbiter
 .text.LightLock_Init
                0x00109bfc       0x18 c:/devkitPro/libctru/lib\libctru.a(synchronization.o)
                0x00109bfc                LightLock_Init
 .text.LightLock_Lock
                0x00109c14       0x94 c:/devkitPro/libctru/lib\libctru.a(synchronization.o)
                0x00109c14                LightLock_Lock
 .text.LightLock_TryLock
                0x00109ca8       0x34 c:/devkitPro/libctru/lib\libctru.a(synchronization.o)
                0x00109ca8                LightLock_TryLock
 .text.LightLock_Unlock
                0x00109cdc       0x20 c:/devkitPro/libctru/lib\libctru.a(synchronization.o)
                0x00109cdc                LightLock_Unlock
 .text.RecursiveLock_Init
                0x00109cfc       0x24 c:/devkitPro/libctru/lib\libctru.a(synchronization.o)
                0x00109cfc                RecursiveLock_Init
 .text.RecursiveLock_Lock
                0x00109d20       0x30 c:/devkitPro/libctru/lib\libctru.a(synchronization.o)
                0x00109d20                RecursiveLock_Lock
 .text.RecursiveLock_TryLock
                0x00109d50       0x58 c:/devkitPro/libctru/lib\libctru.a(synchronization.o)
                0x00109d50                RecursiveLock_TryLock
 .text.RecursiveLock_Unlock
                0x00109da8       0x38 c:/devkitPro/libctru/lib\libctru.a(synchronization.o)
                0x00109da8                RecursiveLock_Unlock
 .text.LightEvent_Init
                0x00109de0       0x38 c:/devkitPro/libctru/lib\libctru.a(synchronization.o)
                0x00109de0                LightEvent_Init
 .text.LightEvent_Clear
                0x00109e18       0x7c c:/devkitPro/libctru/lib\libctru.a(synchronization.o)
                0x00109e18                LightEvent_Clear
 .text.LightEvent_Signal
                0x00109e94       0xdc c:/devkitPro/libctru/lib\libctru.a(synchronization.o)
                0x00109e94                LightEvent_Signal
 .text.LightEvent_Wait
                0x00109f70       0xc8 c:/devkitPro/libctru/lib\libctru.a(synchronization.o)
                0x00109f70                LightEvent_Wait
 .text.threadCreate
                0x0010a038      0x1c8 c:/devkitPro/libctru/lib\libctru.a(thread.o)
                0x0010a038                threadCreate
 .text.threadJoin
                0x0010a200       0x24 c:/devkitPro/libctru/lib\libctru.a(thread.o)
                0x0010a200                threadJoin
 .text.threadExit
                0x0010a224       0x6c c:/devkitPro/libctru/lib\libctru.a(thread.o)
                0x0010a224                threadExit
 .text._thread_begin
                0x0010a290       0x3c c:/devkitPro/libctru/lib\libctru.a(thread.o)
 .text.rbtree_node_next
                0x0010a2cc       0x8c c:/devkitPro/libctru/lib\libctru.a(rbtree_iterator.o)
                0x0010a2cc                rbtree_node_next
 .text.__appExit
                0x0010a358       0x1c c:/devkitPro/libctru/lib\libctru.a(appExit.o)
                0x0010a358                __appExit
 .text.__appInit
                0x0010a374       0x1c c:/devkitPro/libctru/lib\libctru.a(appInit.o)
                0x0010a374                __appInit
 .text.__libctru_exit
                0x0010a390       0xa4 c:/devkitPro/libctru/lib\libctru.a(ctru_exit.o)
                0x0010a390                __libctru_exit
 .text.sdmc_link
                0x0010a434       0x10 c:/devkitPro/libctru/lib\libctru.a(sdmc_dev.o)
 .text.sdmc_dirreset
                0x0010a444       0x10 c:/devkitPro/libctru/lib\libctru.a(sdmc_dev.o)
 .text.sdmc_chmod
                0x0010a454       0x10 c:/devkitPro/libctru/lib\libctru.a(sdmc_dev.o)
 .text.sdmc_fchmod
                0x0010a464       0x10 c:/devkitPro/libctru/lib\libctru.a(sdmc_dev.o)
 .text.error_cmp
                0x0010a474       0x24 c:/devkitPro/libctru/lib\libctru.a(sdmc_dev.o)
 .text.sdmc_translate_error
                0x0010a498       0x50 c:/devkitPro/libctru/lib\libctru.a(sdmc_dev.o)
 .text.sdmc_fsync
                0x0010a4e8       0x34 c:/devkitPro/libctru/lib\libctru.a(sdmc_dev.o)
 .text.sdmc_ftruncate
                0x0010a51c       0x54 c:/devkitPro/libctru/lib\libctru.a(sdmc_dev.o)
 .text.sdmc_statvfs
                0x0010a570       0xac c:/devkitPro/libctru/lib\libctru.a(sdmc_dev.o)
 .text.sdmc_dirclose
                0x0010a61c       0x38 c:/devkitPro/libctru/lib\libctru.a(sdmc_dev.o)
 .text.sdmc_dirnext
                0x0010a654      0x13c c:/devkitPro/libctru/lib\libctru.a(sdmc_dev.o)
 .text.sdmc_close
                0x0010a790       0x34 c:/devkitPro/libctru/lib\libctru.a(sdmc_dev.o)
 .text.sdmc_fstat
                0x0010a7c4       0x74 c:/devkitPro/libctru/lib\libctru.a(sdmc_dev.o)
 .text.sdmc_seek
                0x0010a838       0xc0 c:/devkitPro/libctru/lib\libctru.a(sdmc_dev.o)
 .text.sdmc_read
                0x0010a8f8       0x8c c:/devkitPro/libctru/lib\libctru.a(sdmc_dev.o)
 .text.sdmc_write_safe
                0x0010a984      0x110 c:/devkitPro/libctru/lib\libctru.a(sdmc_dev.o)
 .text.sdmc_utf16path
                0x0010aa94      0x1b4 c:/devkitPro/libctru/lib\libctru.a(sdmc_dev.o)
 .text.sdmc_rmdir
                0x0010ac48       0x74 c:/devkitPro/libctru/lib\libctru.a(sdmc_dev.o)
 .text.sdmc_diropen
                0x0010acbc       0xa8 c:/devkitPro/libctru/lib\libctru.a(sdmc_dev.o)
 .text.sdmc_chdir
                0x0010ad64       0xa0 c:/devkitPro/libctru/lib\libctru.a(sdmc_dev.o)
 .text.sdmc_mkdir
                0x0010ae04       0x98 c:/devkitPro/libctru/lib\libctru.a(sdmc_dev.o)
 .text.sdmc_rename
                0x0010ae9c      0x108 c:/devkitPro/libctru/lib\libctru.a(sdmc_dev.o)
 .text.sdmc_unlink
                0x0010afa4       0x74 c:/devkitPro/libctru/lib\libctru.a(sdmc_dev.o)
 .text.sdmc_stat
                0x0010b018      0x108 c:/devkitPro/libctru/lib\libctru.a(sdmc_dev.o)
 .text.sdmc_open
                0x0010b120      0x188 c:/devkitPro/libctru/lib\libctru.a(sdmc_dev.o)
 .text.sdmcInit
                0x0010b2a8      0x15c c:/devkitPro/libctru/lib\libctru.a(sdmc_dev.o)
                0x0010b2a8                sdmcInit
 .text.sdmcExit
                0x0010b404       0x54 c:/devkitPro/libctru/lib\libctru.a(sdmc_dev.o)
                0x0010b404                sdmcExit
 .text.fsSessionForArchive.part.0
                0x0010b458       0x28 c:/devkitPro/libctru/lib\libctru.a(fs.o)
 .text.fsInit   0x0010b480       0xcc c:/devkitPro/libctru/lib\libctru.a(fs.o)
                0x0010b480                fsInit
 .text.fsExit   0x0010b54c       0x38 c:/devkitPro/libctru/lib\libctru.a(fs.o)
                0x0010b54c                fsExit
 .text.fsExemptFromSession
                0x0010b584       0x74 c:/devkitPro/libctru/lib\libctru.a(fs.o)
                0x0010b584                fsExemptFromSession
 .text.fsUnexemptFromSession
                0x0010b5f8       0x54 c:/devkitPro/libctru/lib\libctru.a(fs.o)
                0x0010b5f8                fsUnexemptFromSession
 .text.FSUSER_OpenFile
                0x0010b64c       0xbc c:/devkitPro/libctru/lib\libctru.a(fs.o)
                0x0010b64c                FSUSER_OpenFile
 .text.FSUSER_DeleteFile
                0x0010b708       0xa4 c:/devkitPro/libctru/lib\libctru.a(fs.o)
                0x0010b708                FSUSER_DeleteFile
 .text.FSUSER_RenameFile
                0x0010b7ac       0xe0 c:/devkitPro/libctru/lib\libctru.a(fs.o)
                0x0010b7ac                FSUSER_RenameFile
 .text.FSUSER_DeleteDirectory
                0x0010b88c       0xa4 c:/devkitPro/libctru/lib\libctru.a(fs.o)
                0x0010b88c                FSUSER_DeleteDirectory
 .text.FSUSER_CreateFile
                0x0010b930       0xbc c:/devkitPro/libctru/lib\libctru.a(fs.o)
                0x0010b930                FSUSER_CreateFile
 .text.FSUSER_CreateDirectory
                0x0010b9ec       0xac c:/devkitPro/libctru/lib\libctru.a(fs.o)
                0x0010b9ec                FSUSER_CreateDirectory
 .text.FSUSER_RenameDirectory
                0x0010ba98       0xe0 c:/devkitPro/libctru/lib\libctru.a(fs.o)
                0x0010ba98                FSUSER_RenameDirectory
 .text.FSUSER_OpenDirectory
                0x0010bb78       0xa4 c:/devkitPro/libctru/lib\libctru.a(fs.o)
                0x0010bb78                FSUSER_OpenDirectory
 .text.FSUSER_OpenArchive
                0x0010bc1c       0x9c c:/devkitPro/libctru/lib\libctru.a(fs.o)
                0x0010bc1c                FSUSER_OpenArchive
 .text.FSUSER_CloseArchive
                0x0010bcb8       0x74 c:/devkitPro/libctru/lib\libctru.a(fs.o)
                0x0010bcb8                FSUSER_CloseArchive
 .text.FSUSER_GetSdmcArchiveResource
                0x0010bd2c       0x78 c:/devkitPro/libctru/lib\libctru.a(fs.o)
                0x0010bd2c                FSUSER_GetSdmcArchiveResource
 .text.FSUSER_IsSdmcWritable
                0x0010bda4       0x64 c:/devkitPro/libctru/lib\libctru.a(fs.o)
                0x0010bda4                FSUSER_IsSdmcWritable
 .text.FSFILE_Read
                0x0010be08       0x5c c:/devkitPro/libctru/lib\libctru.a(fs.o)
                0x0010be08                FSFILE_Read
 .text.FSFILE_Write
                0x0010be64       0x64 c:/devkitPro/libctru/lib\libctru.a(fs.o)
                0x0010be64                FSFILE_Write
 .text.FSFILE_GetSize
                0x0010bec8       0x3c c:/devkitPro/libctru/lib\libctru.a(fs.o)
                0x0010bec8                FSFILE_GetSize
 .text.FSFILE_SetSize
                0x0010bf04       0x2c c:/devkitPro/libctru/lib\libctru.a(fs.o)
                0x0010bf04                FSFILE_SetSize
 .text.FSFILE_Close
                0x0010bf30       0x3c c:/devkitPro/libctru/lib\libctru.a(fs.o)
                0x0010bf30                FSFILE_Close
 .text.FSFILE_Flush
                0x0010bf6c       0x24 c:/devkitPro/libctru/lib\libctru.a(fs.o)
                0x0010bf6c                FSFILE_Flush
 .text.FSDIR_Read
                0x0010bf90       0x54 c:/devkitPro/libctru/lib\libctru.a(fs.o)
                0x0010bf90                FSDIR_Read
 .text.FSDIR_Close
                0x0010bfe4       0x3c c:/devkitPro/libctru/lib\libctru.a(fs.o)
                0x0010bfe4                FSDIR_Close
 .text.decode_utf8
                0x0010c020      0x138 c:/devkitPro/libctru/lib\libctru.a(decode_utf8.o)
                0x0010c020                decode_utf8
 .text.utf16_to_utf8
                0x0010c158       0xe4 c:/devkitPro/libctru/lib\libctru.a(utf16_to_utf8.o)
                0x0010c158                utf16_to_utf8
 .text.utf8_to_utf16
                0x0010c23c       0xbc c:/devkitPro/libctru/lib\libctru.a(utf8_to_utf16.o)
                0x0010c23c                utf8_to_utf16
 .text.__aeabi_read_tp
                0x0010c2f8        0xc c:/devkitPro/libctru/lib\libctru.a(readtp.o)
                0x0010c2f8                __aeabi_read_tp
 .text.decode_utf16
                0x0010c304       0x60 c:/devkitPro/libctru/lib\libctru.a(decode_utf16.o)
                0x0010c304                decode_utf16
 .text.encode_utf16
                0x0010c364       0x68 c:/devkitPro/libctru/lib\libctru.a(encode_utf16.o)
                0x0010c364                encode_utf16
 .text.encode_utf8
                0x0010c3cc      0x104 c:/devkitPro/libctru/lib\libctru.a(encode_utf8.o)
                0x0010c3cc                encode_utf8
 .text.bsearch  0x0010c4d0       0x78 c:/devkitpro/devkitarm/bin/../lib/gcc/arm-none-eabi/5.3.0/../../../../arm-none-eabi/lib/armv6k/fpu\libg.a(lib_a-bsearch.o)
                0x0010c4d0                bsearch
 .text.calloc   0x0010c548       0x20 c:/devkitpro/devkitarm/bin/../lib/gcc/arm-none-eabi/5.3.0/../../../../arm-none-eabi/lib/armv6k/fpu\libg.a(lib_a-calloc.o)
                0x0010c548                calloc
 .text._calloc_r
                0x0010c568       0x90 c:/devkitpro/devkitarm/bin/../lib/gcc/arm-none-eabi/5.3.0/../../../../arm-none-eabi/lib/armv6k/fpu\libg.a(lib_a-callocr.o)
                0x0010c568                _calloc_r
 .text.__libc_fini_array
                0x0010c5f8       0x3c c:/devkitpro/devkitarm/bin/../lib/gcc/arm-none-eabi/5.3.0/../../../../arm-none-eabi/lib/armv6k/fpu\libg.a(lib_a-fini.o)
                0x0010c5f8                __libc_fini_array
 .text.__libc_init_array
                0x0010c634       0x78 c:/devkitpro/devkitarm/bin/../lib/gcc/arm-none-eabi/5.3.0/../../../../arm-none-eabi/lib/armv6k/fpu\libg.a(lib_a-init.o)
                0x0010c634                __libc_init_array
 .text.memalign
                0x0010c6ac       0x20 c:/devkitpro/devkitarm/bin/../lib/gcc/arm-none-eabi/5.3.0/../../../../arm-none-eabi/lib/armv6k/fpu\libg.a(lib_a-malign.o)
                0x0010c6ac                memalign
 .text._memalign_r
                0x0010c6cc      0x15c c:/devkitpro/devkitarm/bin/../lib/gcc/arm-none-eabi/5.3.0/../../../../arm-none-eabi/lib/armv6k/fpu\libg.a(lib_a-malignr.o)
                0x0010c6cc                _memalign_r
 .text.malloc   0x0010c828       0x18 c:/devkitpro/devkitarm/bin/../lib/gcc/arm-none-eabi/5.3.0/../../../../arm-none-eabi/lib/armv6k/fpu\libg.a(lib_a-malloc.o)
                0x0010c828                malloc
 .text.free     0x0010c840       0x18 c:/devkitpro/devkitarm/bin/../lib/gcc/arm-none-eabi/5.3.0/../../../../arm-none-eabi/lib/armv6k/fpu\libg.a(lib_a-malloc.o)
                0x0010c840                free
 .text._malloc_r
                0x0010c858      0x7a8 c:/devkitpro/devkitarm/bin/../lib/gcc/arm-none-eabi/5.3.0/../../../../arm-none-eabi/lib/armv6k/fpu\libg.a(lib_a-mallocr.o)
                0x0010c858                _malloc_r
 .text.memcpy   0x0010d000       0xf0 c:/devkitpro/devkitarm/bin/../lib/gcc/arm-none-eabi/5.3.0/../../../../arm-none-eabi/lib/armv6k/fpu\libg.a(lib_a-memcpy.o)
                0x0010d000                memcpy
 .text.memset   0x0010d0f0       0xf4 c:/devkitpro/devkitarm/bin/../lib/gcc/arm-none-eabi/5.3.0/../../../../arm-none-eabi/lib/armv6k/fpu\libg.a(lib_a-memset.o)
                0x0010d0f0                memset
 .text.__malloc_lock
                0x0010d1e4        0xc c:/devkitpro/devkitarm/bin/../lib/gcc/arm-none-eabi/5.3.0/../../../../arm-none-eabi/lib/armv6k/fpu\libg.a(lib_a-mlock.o)
                0x0010d1e4                __malloc_lock
 .text.__malloc_unlock
                0x0010d1f0        0xc c:/devkitpro/devkitarm/bin/../lib/gcc/arm-none-eabi/5.3.0/../../../../arm-none-eabi/lib/armv6k/fpu\libg.a(lib_a-mlock.o)
                0x0010d1f0                __malloc_unlock
 .text.strlen   0x0010d1fc       0x5c c:/devkitpro/devkitarm/bin/../lib/gcc/arm-none-eabi/5.3.0/../../../../arm-none-eabi/lib/armv6k/fpu\libg.a(lib_a-strlen.o)
                0x0010d1fc                strlen
 .text.strncat  0x0010d258       0xa4 c:/devkitpro/devkitarm/bin/../lib/gcc/arm-none-eabi/5.3.0/../../../../arm-none-eabi/lib/armv6k/fpu\libg.a(lib_a-strncat.o)
                0x0010d258                strncat
 .text.strncpy  0x0010d2fc       0xe0 c:/devkitpro/devkitarm/bin/../lib/gcc/arm-none-eabi/5.3.0/../../../../arm-none-eabi/lib/armv6k/fpu\libg.a(lib_a-strncpy.o)
                0x0010d2fc                strncpy
 .text._malloc_trim_r
                0x0010d3dc       0xf8 c:/devkitpro/devkitarm/bin/../lib/gcc/arm-none-eabi/5.3.0/../../../../arm-none-eabi/lib/armv6k/fpu\libg.a(lib_a-freer.o)
                0x0010d3dc                _malloc_trim_r
 .text._free_r  0x0010d4d4      0x2e4 c:/devkitpro/devkitarm/bin/../lib/gcc/arm-none-eabi/5.3.0/../../../../arm-none-eabi/lib/armv6k/fpu\libg.a(lib_a-freer.o)
                0x0010d4d4                _free_r
 .text.strchr   0x0010d7b8      0x15c c:/devkitpro/devkitarm/bin/../lib/gcc/arm-none-eabi/5.3.0/../../../../arm-none-eabi/lib/armv6k/fpu\libg.a(lib_a-strchr.o)
                0x0010d7b8                strchr
 .text.strncmp  0x0010d914      0x11c c:/devkitpro/devkitarm/bin/../lib/gcc/arm-none-eabi/5.3.0/../../../../arm-none-eabi/lib/armv6k/fpu\libg.a(lib_a-strncmp.o)
                0x0010d914                strncmp
 .text.strnlen  0x0010da30       0x5c c:/devkitpro/devkitarm/bin/../lib/gcc/arm-none-eabi/5.3.0/../../../../arm-none-eabi/lib/armv6k/fpu\libg.a(lib_a-strnlen.o)
                0x0010da30                strnlen
 .text.strrchr  0x0010da8c       0x44 c:/devkitpro/devkitarm/bin/../lib/gcc/arm-none-eabi/5.3.0/../../../../arm-none-eabi/lib/armv6k/fpu\libg.a(lib_a-strrchr.o)
                0x0010da8c                strrchr
 *(.glue_7)
 .glue_7        0x0010dad0        0x0 linker stubs
 *(.glue_7t)
 .glue_7t       0x0010dad0        0x0 linker stubs
 *(.stub)
 *(.gnu.warning)
 *(.gnu.linkonce.t*)
                0x0010dad0                . = ALIGN (0x4)
 *(.fini)
 .fini          0x0010dad0        0xc c:/devkitpro/devkitarm/bin/../lib/gcc/arm-none-eabi/5.3.0/armv6k/fpu/crti.o
                0x0010dad0                _fini
 .fini          0x0010dadc        0xc c:/devkitpro/devkitarm/bin/../lib/gcc/arm-none-eabi/5.3.0/armv6k/fpu/crtn.o
                0x0010dae8                . = ALIGN (0x4)

.vfp11_veneer   0x0010dae8        0x0
 .vfp11_veneer  0x0010dae8        0x0 linker stubs

.v4_bx          0x0010dae8        0x0
 .v4_bx         0x0010dae8        0x0 linker stubs

.iplt           0x0010dae8        0x0
 .iplt          0x0010dae8        0x0 c:/devkitpro/devkitarm/bin/../lib/gcc/arm-none-eabi/5.3.0/../../../../arm-none-eabi/lib/armv6k/fpu/3dsx_crt0.o

.rodata         0x0010e000    0x6c064
 *(.rodata)
 .rodata        0x0010e000      0x110 ball_tex.o
                0x0010e000                ball_tex
 .rodata        0x0010e110     0x1010 button_Selector_Tex.o
                0x0010e110                button_Selector_Tex
 .rodata        0x0010f120     0x6010 double_Button_Tex.o
                0x0010f120                double_Button_Tex
 .rodata        0x00115130     0xb8d4 game_title_tex.o
                0x00115130                game_title_tex
 .rodata        0x00120a04    0x4b010 menu_Title_Tex.o
                0x00120a04                menu_Title_Tex
 .rodata        0x0016ba14     0x1e10 midline_Tex.o
                0x0016ba14                midline_Tex
 .rodata        0x0016d824      0x3d0 paddle_tex.o
                0x0016d824                paddle_tex
 .rodata        0x0016dbf4     0x6010 quit_Button_Tex.o
                0x0016dbf4                quit_Button_Tex
 .rodata        0x00173c04     0x6010 single_Button_Tex.o
                0x00173c04                single_Button_Tex
 .rodata        0x00179c14       0x10 c:/devkitPro/libctru/lib\libsf2d.a(sf2d_texture.o)
 .rodata        0x00179c24      0x150 c:/devkitPro/libctru/lib\libsf2d.a(shader.shbin.o)
                0x00179c24                shader_shbin
                0x00179d70                shader_shbin_end
                0x00179d70                shader_shbin_size
 .rodata        0x00179d74        0x4 c:/devkitPro/libctru/lib\libcitro3d.a(base.o)
 .rodata        0x00179d78       0x10 c:/devkitPro/libctru/lib\libcitro3d.a(renderbuffer.o)
 .rodata        0x00179d88       0x38 c:/devkitPro/libctru/lib\libcitro3d.a(texture.o)
 .rodata        0x00179dc0       0x1c c:/devkitPro/libctru/lib\libctru.a(gfx.o)
 .rodata        0x00179ddc       0x24 c:/devkitPro/libctru/lib\libctru.a(shbin.o)
 .rodata        0x00179e00        0xc c:/devkitPro/libctru/lib\libctru.a(apt.o)
 .rodata        0x00179e0c       0x3c c:/devkitPro/libctru/lib\libctru.a(sdmc_dev.o)
 .rodata        0x00179e48       0x68 c:/devkitpro/devkitarm/bin/../lib/gcc/arm-none-eabi/5.3.0/../../../../arm-none-eabi/lib/armv6k/fpu\libsysbase.a(iosupport.o)
                0x00179e48                dotab_stdnull
 .rodata        0x00179eb0        0xc c:/devkitpro/devkitarm/bin/../lib/gcc/arm-none-eabi/5.3.0/../../../../arm-none-eabi/lib/armv6k/fpu\libsysbase.a(chdir.o)
                0x00179eb0                DIRECTORY_PARENT
                0x00179eb4                DIRECTORY_THIS
                0x00179eb8                DIRECTORY_SEPARATOR
 *(.roda)
 *(.rodata.*)
 .rodata.str1.4
                0x00179ebc       0x25 c:/devkitPro/libctru/lib\libsf2d.a(sf2d.o)
                                 0x28 (size before relaxing)
 *fill*         0x00179ee1        0x3 
 .rodata.str1.4
                0x00179ee4       0x16 c:/devkitPro/libctru/lib\libctru.a(apt.o)
                                 0x18 (size before relaxing)
 *fill*         0x00179efa        0x2 
 .rodata.str1.4
                0x00179efc        0x9 c:/devkitPro/libctru/lib\libctru.a(gspgpu.o)
                                  0xc (size before relaxing)
 *fill*         0x00179f05        0x3 
 .rodata.str1.4
                0x00179f08       0x15 c:/devkitPro/libctru/lib\libctru.a(hid.o)
                                 0x18 (size before relaxing)
 *fill*         0x00179f1d        0x3 
 .rodata.str1.4
                0x00179f20        0x7 c:/devkitPro/libctru/lib\libctru.a(irrst.o)
                                  0x8 (size before relaxing)
 *fill*         0x00179f27        0x1 
 .rodata.str1.4
                0x00179f28        0x9 c:/devkitPro/libctru/lib\libctru.a(ptmsysm.o)
                                  0xc (size before relaxing)
 *fill*         0x00179f31        0x3 
 .rodata.str1.4
                0x00179f34        0x5 c:/devkitPro/libctru/lib\libctru.a(srv.o)
                                  0x8 (size before relaxing)
 *fill*         0x00179f39        0x3 
 .rodata.str1.4
                0x00179f3c        0x2 c:/devkitPro/libctru/lib\libctru.a(thread.o)
                                  0x4 (size before relaxing)
 *fill*         0x00179f3e        0x2 
 .rodata.str1.4
                0x00179f40        0xd c:/devkitPro/libctru/lib\libctru.a(sdmc_dev.o)
                                 0x14 (size before relaxing)
 *fill*         0x00179f4d        0x3 
 .rodata.str1.4
                0x00179f50        0x8 c:/devkitPro/libctru/lib\libctru.a(fs.o)
                                  0xc (size before relaxing)
 .rodata.str1.4
                0x00179f58        0x4 c:/devkitpro/devkitarm/bin/../lib/gcc/arm-none-eabi/5.3.0/../../../../arm-none-eabi/lib/armv6k/fpu\libg.a(lib_a-impure.o)
 .rodata.str1.4
                0x00179f58        0x8 c:/devkitpro/devkitarm/bin/../lib/gcc/arm-none-eabi/5.3.0/../../../../arm-none-eabi/lib/armv6k/fpu\libsysbase.a(iosupport.o)
 .rodata._ctype_
                0x00179f60      0x104 c:/devkitpro/devkitarm/bin/../lib/gcc/arm-none-eabi/5.3.0/../../../../arm-none-eabi/lib/armv6k/fpu\libg.a(lib_a-ctype_.o)
                0x00179f60                _ctype_
 *all.rodata*(*)
 *(.gnu.linkonce.r*)
                0x0017a064                . = ALIGN (0x4)

.eh_frame       0x0017a064        0x0
 .eh_frame      0x0017a064        0x0 c:/devkitpro/devkitarm/bin/../lib/gcc/arm-none-eabi/5.3.0/armv6k/fpu/crtbegin.o

.rel.dyn        0x0017a064        0x0
 .rel.iplt      0x0017a064        0x0 c:/devkitpro/devkitarm/bin/../lib/gcc/arm-none-eabi/5.3.0/../../../../arm-none-eabi/lib/armv6k/fpu/3dsx_crt0.o

.ARM.extab
 *(.ARM.extab* .gnu.linkonce.armextab.*)
                0x0017a064                __exidx_start = .

ARM.exidx
 *(.ARM.exidx* .gnu.linkonce.armexidx.*)
                0x0017a064                __exidx_end = .

.data           0x0017b000     0x1d3c
 *(.data)
 .data          0x0017b000       0x10 c:/devkitPro/libctru/lib\libsf2d.a(sf2d.o)
 .data          0x0017b010        0xc c:/devkitPro/libctru/lib\libctru.a(gfx.o)
 .data          0x0017b01c        0x4 c:/devkitPro/libctru/lib\libctru.a(apt.o)
 .data          0x0017b020        0x4 c:/devkitPro/libctru/lib\libctru.a(gspgpu.o)
 .data          0x0017b024        0x4 c:/devkitPro/libctru/lib\libctru.a(stack_adjust.o)
                0x0017b024                __stacksize__
 .data          0x0017b028      0x46c c:/devkitPro/libctru/lib\libctru.a(sdmc_dev.o)
 .data          0x0017b494       0x44 c:/devkitpro/devkitarm/bin/../lib/gcc/arm-none-eabi/5.3.0/../../../../arm-none-eabi/lib/armv6k/fpu\libsysbase.a(iosupport.o)
                0x0017b498                devoptab_list
 .data          0x0017b4d8     0x1000 c:/devkitpro/devkitarm/bin/../lib/gcc/arm-none-eabi/5.3.0/../../../../arm-none-eabi/lib/armv6k/fpu\libsysbase.a(chdir.o)
 *(.data.*)
 .data.impure_data
                0x0017c4d8      0x440 c:/devkitpro/devkitarm/bin/../lib/gcc/arm-none-eabi/5.3.0/../../../../arm-none-eabi/lib/armv6k/fpu\libg.a(lib_a-impure.o)
 .data._impure_ptr
                0x0017c918        0x4 c:/devkitpro/devkitarm/bin/../lib/gcc/arm-none-eabi/5.3.0/../../../../arm-none-eabi/lib/armv6k/fpu\libg.a(lib_a-impure.o)
                0x0017c918                _impure_ptr
 .data.__malloc_av_
                0x0017c91c      0x408 c:/devkitpro/devkitarm/bin/../lib/gcc/arm-none-eabi/5.3.0/../../../../arm-none-eabi/lib/armv6k/fpu\libg.a(lib_a-mallocr.o)
                0x0017c91c                __malloc_av_
 .data.__malloc_trim_threshold
                0x0017cd24        0x4 c:/devkitpro/devkitarm/bin/../lib/gcc/arm-none-eabi/5.3.0/../../../../arm-none-eabi/lib/armv6k/fpu\libg.a(lib_a-mallocr.o)
                0x0017cd24                __malloc_trim_threshold
 .data.__malloc_sbrk_base
                0x0017cd28        0x4 c:/devkitpro/devkitarm/bin/../lib/gcc/arm-none-eabi/5.3.0/../../../../arm-none-eabi/lib/armv6k/fpu\libg.a(lib_a-mallocr.o)
                0x0017cd28                __malloc_sbrk_base
 .data.__malloc_lock_object
                0x0017cd2c        0xc c:/devkitpro/devkitarm/bin/../lib/gcc/arm-none-eabi/5.3.0/../../../../arm-none-eabi/lib/armv6k/fpu\libg.a(lib_a-mlock.o)
 .data.__ctype_ptr__
                0x0017cd38        0x4 c:/devkitpro/devkitarm/bin/../lib/gcc/arm-none-eabi/5.3.0/../../../../arm-none-eabi/lib/armv6k/fpu\libg.a(lib_a-ctype_.o)
                0x0017cd38                __ctype_ptr__
 *(.gnu.linkonce.d*)
                0x0017cd3c                . = ALIGN (0x4)

.igot.plt       0x0017cd3c        0x0
 .igot.plt      0x0017cd3c        0x0 c:/devkitpro/devkitarm/bin/../lib/gcc/arm-none-eabi/5.3.0/../../../../arm-none-eabi/lib/armv6k/fpu/3dsx_crt0.o

.jcr            0x0017cd3c        0x0
 .jcr           0x0017cd3c        0x0 c:/devkitpro/devkitarm/bin/../lib/gcc/arm-none-eabi/5.3.0/armv6k/fpu/crtbegin.o

.tm_clone_table
                0x0017cd3c        0x0
 .tm_clone_table
                0x0017cd3c        0x0 c:/devkitpro/devkitarm/bin/../lib/gcc/arm-none-eabi/5.3.0/armv6k/fpu/crtbegin.o
 .tm_clone_table
                0x0017cd3c        0x0 c:/devkitpro/devkitarm/bin/../lib/gcc/arm-none-eabi/5.3.0/armv6k/fpu/crtend.o
                0x0017cd3c                __TMC_END__

.tdata          0x0017cd3c        0x0
                0x0017cd3c                __tdata_lma = .
 *(.tdata)
 *(.tdata.*)
 *(.gnu.linkonce.td.*)
                0x0017cd3c                . = ALIGN (0x4)
                0x0017cd3c                __tdata_lma_end = .

.tbss           0x0017cd3c     0x340c
 *(.tbss)
 .tbss          0x0017cd3c     0x340c c:/devkitPro/libctru/lib\libctru.a(sdmc_dev.o)
 *(.tbss.*)
 *(.gnu.linkonce.tb.*)
 *(.tcommon)
                0x00180148                . = ALIGN (0x4)

.preinit_array  0x0017cd3c        0x0
                0x0017cd3c                PROVIDE (__preinit_array_start, .)
 *(.preinit_array)
                0x0017cd3c                PROVIDE (__preinit_array_end, .)

.init_array     0x0017cd3c        0x4
                0x0017cd3c                PROVIDE (__init_array_start, .)
 *(SORT(.init_array.*))
 *(.init_array)
 .init_array    0x0017cd3c        0x4 c:/devkitpro/devkitarm/bin/../lib/gcc/arm-none-eabi/5.3.0/armv6k/fpu/crtbegin.o
                0x0017cd40                PROVIDE (__init_array_end, .)

.fini_array     0x0017cd40        0x4
                0x0017cd40                PROVIDE (__fini_array_start, .)
 *(.fini_array)
 .fini_array    0x0017cd40        0x4 c:/devkitpro/devkitarm/bin/../lib/gcc/arm-none-eabi/5.3.0/armv6k/fpu/crtbegin.o
 *(SORT(.fini_array.*))
                0x0017cd44                PROVIDE (__fini_array_end, .)

.ctors
 *crtbegin.o(.ctors)
 *(EXCLUDE_FILE(*crtend.o) .ctors)
 *(SORT(.ctors.*))
 *(.ctors)

.dtors
 *crtbegin.o(.dtors)
 *(EXCLUDE_FILE(*crtend.o) .dtors)
 *(SORT(.dtors.*))
 *(.dtors)
                0x0017cd44                __bss_start__ = .

.bss            0x0017cd44     0x68c8
 *(.dynbss)
 *(.bss)
 .bss           0x0017cd44       0x1c c:/devkitpro/devkitarm/bin/../lib/gcc/arm-none-eabi/5.3.0/armv6k/fpu/crtbegin.o
 .bss           0x0017cd60       0x50 c:/devkitPro/libctru/lib\libsf2d.a(sf2d.o)
 .bss           0x0017cdb0        0xc c:/devkitPro/libctru/lib\libcitro3d.a(base.o)
 .bss           0x0017cdbc       0x98 c:/devkitPro/libctru/lib\libcitro3d.a(renderqueue.o)
 .bss           0x0017ce54       0xe0 c:/devkitPro/libctru/lib\libcitro3d.a(uniforms.o)
 .bss           0x0017cf34       0x14 c:/devkitPro/libctru/lib\libctru.a(linear.o)
 .bss           0x0017cf48       0x14 c:/devkitPro/libctru/lib\libctru.a(vram.o)
 .bss           0x0017cf5c        0xc c:/devkitPro/libctru/lib\libctru.a(gfx.o)
 .bss           0x0017cf68        0x1 c:/devkitPro/libctru/lib\libctru.a(os.o)
                0x0017cf68                __ctru_speedup
 *fill*         0x0017cf69        0x3 
 .bss           0x0017cf6c     0x1040 c:/devkitPro/libctru/lib\libctru.a(apt.o)
 .bss           0x0017dfac       0xa8 c:/devkitPro/libctru/lib\libctru.a(gspgpu.o)
 .bss           0x0017e054       0x2c c:/devkitPro/libctru/lib\libctru.a(hid.o)
 .bss           0x0017e080        0xc c:/devkitPro/libctru/lib\libctru.a(irrst.o)
 .bss           0x0017e08c        0x8 c:/devkitPro/libctru/lib\libctru.a(ptmsysm.o)
 .bss           0x0017e094        0x8 c:/devkitPro/libctru/lib\libctru.a(stack_adjust.o)
 .bss           0x0017e09c       0x14 c:/devkitPro/libctru/lib\libctru.a(mappable.o)
 .bss           0x0017e0b0        0x8 c:/devkitPro/libctru/lib\libctru.a(srv.o)
 .bss           0x0017e0b8        0x4 c:/devkitPro/libctru/lib\libctru.a(synchronization.o)
 *fill*         0x0017e0bc        0x4 
 .bss           0x0017e0c0       0x10 c:/devkitPro/libctru/lib\libctru.a(sdmc_dev.o)
 .bss           0x0017e0d0       0x88 c:/devkitPro/libctru/lib\libctru.a(fs.o)
 .bss           0x0017e158        0x4 c:/devkitpro/devkitarm/bin/../lib/gcc/arm-none-eabi/5.3.0/../../../../arm-none-eabi/lib/armv6k/fpu\libsysbase.a(sbrk.o)
 .bss           0x0017e15c        0x8 c:/devkitpro/devkitarm/bin/../lib/gcc/arm-none-eabi/5.3.0/../../../../arm-none-eabi/lib/armv6k/fpu\libsysbase.a(malloc_vars.o)
                0x0017e15c                fake_heap_start
                0x0017e160                fake_heap_end
 .bss           0x0017e164     0x1000 c:/devkitpro/devkitarm/bin/../lib/gcc/arm-none-eabi/5.3.0/../../../../arm-none-eabi/lib/armv6k/fpu\libsysbase.a(chdir.o)
 .bss           0x0017f164       0x38 c:/devkitpro/devkitarm/bin/../lib/gcc/arm-none-eabi/5.3.0/../../../../arm-none-eabi/lib/armv6k/fpu\libsysbase.a(syscall_support.o)
                0x0017f164                __syscalls
 *(.bss.*)
 .bss.__malloc_max_total_mem
                0x0017f19c        0x4 c:/devkitpro/devkitarm/bin/../lib/gcc/arm-none-eabi/5.3.0/../../../../arm-none-eabi/lib/armv6k/fpu\libg.a(lib_a-mallocr.o)
                0x0017f19c                __malloc_max_total_mem
 .bss.__malloc_max_sbrked_mem
                0x0017f1a0        0x4 c:/devkitpro/devkitarm/bin/../lib/gcc/arm-none-eabi/5.3.0/../../../../arm-none-eabi/lib/armv6k/fpu\libg.a(lib_a-mallocr.o)
                0x0017f1a0                __malloc_max_sbrked_mem
 .bss.__malloc_top_pad
                0x0017f1a4        0x4 c:/devkitpro/devkitarm/bin/../lib/gcc/arm-none-eabi/5.3.0/../../../../arm-none-eabi/lib/armv6k/fpu\libg.a(lib_a-mallocr.o)
                0x0017f1a4                __malloc_top_pad
 .bss.__malloc_current_mallinfo
                0x0017f1a8       0x28 c:/devkitpro/devkitarm/bin/../lib/gcc/arm-none-eabi/5.3.0/../../../../arm-none-eabi/lib/armv6k/fpu\libg.a(lib_a-mallocr.o)
                0x0017f1a8                __malloc_current_mallinfo
 *(.gnu.linkonce.b*)
 *(COMMON)
 COMMON         0x0017f1d0        0x1 button.o
                0x0017f1d0                Cur_State
 *fill*         0x0017f1d1        0x3 
 COMMON         0x0017f1d4        0x4 main.o
                0x0017f1d4                touchPos
 COMMON         0x0017f1d8      0x278 c:/devkitPro/libctru/lib\libcitro3d.a(base.o)
                0x0017f1d8                __C3D_Context
 COMMON         0x0017f450      0xcf0 c:/devkitPro/libctru/lib\libcitro3d.a(uniforms.o)
                0x0017f450                C3D_IVUnif
                0x0017f470                C3D_FVUnifDirty
                0x0017f530                C3D_BoolUnifsDirty
                0x0017f534                C3D_IVUnifDirty
                0x0017f53c                C3D_BoolUnifs
                0x0017f540                C3D_FVUnif
 COMMON         0x00180140       0x60 c:/devkitPro/libctru/lib\libctru.a(gfx.o)
                0x00180140                gfxBottomFramebuffers
                0x00180148                gspSharedMemHandle
                0x0018014c                bottomFramebufferInfo
                0x00180168                gspEvent
                0x0018016c                gfxTopLeftFramebuffers
                0x00180174                gfxTopRightFramebuffers
                0x0018017c                topFramebufferInfo
                0x00180198                gfxThreadID
                0x0018019c                gfxSharedMemory
 COMMON         0x001801a0        0xc c:/devkitPro/libctru/lib\libctru.a(gpu.o)
                0x001801a0                gpuCmdBuf
                0x001801a4                gpuCmdBufOffset
                0x001801a8                gpuCmdBufSize
 COMMON         0x001801ac        0x4 c:/devkitPro/libctru/lib\libctru.a(gx.o)
                0x001801ac                gxCmdBuf
 COMMON         0x001801b0        0x4 c:/devkitPro/libctru/lib\libctru.a(gspgpu.o)
                0x001801b0                gspGpuHandle
 COMMON         0x001801b4       0x20 c:/devkitPro/libctru/lib\libctru.a(hid.o)
                0x001801b4                hidMemHandle
                0x001801b8                hidHandle
                0x001801bc                hidSharedMem
                0x001801c0                hidEvents
 COMMON         0x001801d4       0x10 c:/devkitPro/libctru/lib\libctru.a(irrst.o)
                0x001801d4                irrstHandle
                0x001801d8                irrstEvent
                0x001801dc                irrstMemHandle
                0x001801e0                irrstSharedMem
 COMMON         0x001801e4       0x10 c:/devkitPro/libctru/lib\libctru.a(allocateHeaps.o)
                0x001801e4                __ctru_heap_size
                0x001801e8                __ctru_linear_heap
                0x001801ec                __ctru_heap
                0x001801f0                __ctru_linear_heap_size
 COMMON         0x001801f4        0x8 c:/devkitPro/libctru/lib\libctru.a(initArgv.o)
                0x001801f4                __system_argv
                0x001801f8                __system_argc
 COMMON         0x001801fc        0x4 c:/devkitPro/libctru/lib\libctru.a(initSystem.o)
                0x001801fc                __system_retAddr
                0x00180200                . = ALIGN (0x4)
                0x00180200                __tls_start = .
                0x0018360c                . = (. + (SIZEOF (.tdata) + SIZEOF (.tbss)))
 *fill*         0x00180200     0x340c 
                0x0018360c                __tls_end = .
                0x0018360c                __bss_end__ = .
                0x0018360c                __end__ = ABSOLUTE (.)

/DISCARD/
 *(.group .comment .note)

.stab
 *(.stab)

.stabstr
 *(.stabstr)

.stab.excl
 *(.stab.excl)

.stab.exclstr
 *(.stab.exclstr)

.stab.index
 *(.stab.index)

.stab.indexstr
 *(.stab.indexstr)

.debug
 *(.debug)

.line
 *(.line)

.debug_srcinfo
 *(.debug_srcinfo)

.debug_sfnames
 *(.debug_sfnames)

.debug_aranges  0x00000000     0x1b40
 *(.debug_aranges)
 .debug_aranges
                0x00000000       0x20 ball.o
 .debug_aranges
                0x00000020       0x18 ball_tex.o
 .debug_aranges
                0x00000038       0x20 button.o
 .debug_aranges
                0x00000058       0x18 button_Selector_Tex.o
 .debug_aranges
                0x00000070       0x18 double_Button_Tex.o
 .debug_aranges
                0x00000088       0x18 game_title_tex.o
 .debug_aranges
                0x000000a0       0x20 main.o
 .debug_aranges
                0x000000c0       0x20 menu.o
 .debug_aranges
                0x000000e0       0x18 menu_Title_Tex.o
 .debug_aranges
                0x000000f8       0x18 midline_Tex.o
 .debug_aranges
                0x00000110       0x20 paddle.o
 .debug_aranges
                0x00000130       0x18 paddle_tex.o
 .debug_aranges
                0x00000148       0x18 quit_Button_Tex.o
 .debug_aranges
                0x00000160       0x18 single_Button_Tex.o
 .debug_aranges
                0x00000178       0x20 two_player_mode.o
 .debug_aranges
                0x00000198       0xc0 c:/devkitPro/libctru/lib\libsf2d.a(sf2d.o)
 .debug_aranges
                0x00000258      0x148 c:/devkitPro/libctru/lib\libsf2d.a(sf2d_texture.o)
 .debug_aranges
                0x000003a0       0x48 c:/devkitPro/libctru/lib\libcitro3d.a(attribs.o)
 .debug_aranges
                0x000003e8       0x70 c:/devkitPro/libctru/lib\libcitro3d.a(base.o)
 .debug_aranges
                0x00000458       0x40 c:/devkitPro/libctru/lib\libcitro3d.a(buffers.o)
 .debug_aranges
                0x00000498       0x20 c:/devkitPro/libctru/lib\libcitro3d.a(drawArrays.o)
 .debug_aranges
                0x000004b8       0x70 c:/devkitPro/libctru/lib\libcitro3d.a(effect.o)
 .debug_aranges
                0x00000528       0x30 c:/devkitPro/libctru/lib\libcitro3d.a(immediate.o)
 .debug_aranges
                0x00000558       0x48 c:/devkitPro/libctru/lib\libcitro3d.a(renderbuffer.o)
 .debug_aranges
                0x000005a0       0xe0 c:/devkitPro/libctru/lib\libcitro3d.a(renderqueue.o)
 .debug_aranges
                0x00000680       0x48 c:/devkitPro/libctru/lib\libcitro3d.a(texenv.o)
 .debug_aranges
                0x000006c8       0x58 c:/devkitPro/libctru/lib\libcitro3d.a(texture.o)
 .debug_aranges
                0x00000720       0x38 c:/devkitPro/libctru/lib\libcitro3d.a(uniforms.o)
 .debug_aranges
                0x00000758       0x20 c:/devkitPro/libctru/lib\libcitro3d.a(mtx_orthotilt.o)
 .debug_aranges
                0x00000778       0x20 c:/devkitPro/libctru/lib\libcitro3d.a(mtx_identity.o)
 .debug_aranges
                0x00000798       0x20 c:/devkitPro/libctru/lib\libcitro3d.a(mtx_multiply.o)
 .debug_aranges
                0x000007b8       0x50 c:/devkitPro/libctru/lib\libctru.a(linear.o)
 .debug_aranges
                0x00000808       0x38 c:/devkitPro/libctru/lib\libctru.a(mem_pool.o)
 .debug_aranges
                0x00000840       0x50 c:/devkitPro/libctru/lib\libctru.a(vram.o)
 .debug_aranges
                0x00000890       0xa0 c:/devkitPro/libctru/lib\libctru.a(gfx.o)
 .debug_aranges
                0x00000930       0x68 c:/devkitPro/libctru/lib\libctru.a(os.o)
 .debug_aranges
                0x00000998       0x78 c:/devkitPro/libctru/lib\libctru.a(gpu.o)
 .debug_aranges
                0x00000a10       0x48 c:/devkitPro/libctru/lib\libctru.a(gx.o)
 .debug_aranges
                0x00000a58       0x98 c:/devkitPro/libctru/lib\libctru.a(shaderProgram.o)
 .debug_aranges
                0x00000af0       0x38 c:/devkitPro/libctru/lib\libctru.a(shbin.o)
 .debug_aranges
                0x00000b28      0x1d8 c:/devkitPro/libctru/lib\libctru.a(apt.o)
 .debug_aranges
                0x00000d00       0xd8 c:/devkitPro/libctru/lib\libctru.a(gspgpu.o)
 .debug_aranges
                0x00000dd8       0xb0 c:/devkitPro/libctru/lib\libctru.a(hid.o)
 .debug_aranges
                0x00000e88       0x68 c:/devkitPro/libctru/lib\libctru.a(irrst.o)
 .debug_aranges
                0x00000ef0       0x30 c:/devkitPro/libctru/lib\libctru.a(ptmsysm.o)
 .debug_aranges
                0x00000f20       0x20 c:/devkitPro/libctru/lib\libctru.a(rbtree_find.o)
 .debug_aranges
                0x00000f40       0x20 c:/devkitPro/libctru/lib\libctru.a(rbtree_init.o)
 .debug_aranges
                0x00000f60       0x30 c:/devkitPro/libctru/lib\libctru.a(rbtree_insert.o)
 .debug_aranges
                0x00000f90       0x20 c:/devkitPro/libctru/lib\libctru.a(rbtree_remove.o)
 .debug_aranges
                0x00000fb0       0x20 c:/devkitPro/libctru/lib\libctru.a(rbtree_rotate.o)
 .debug_aranges
                0x00000fd0       0x28 c:/devkitPro/libctru/lib\libctru.a(allocateHeaps.o)
 .debug_aranges
                0x00000ff8       0x20 c:/devkitPro/libctru/lib\libctru.a(initArgv.o)
 .debug_aranges
                0x00001018       0x20 c:/devkitPro/libctru/lib\libctru.a(initSystem.o)
 .debug_aranges
                0x00001038       0x28 c:/devkitPro/libctru/lib\libctru.a(syscalls.o)
 .debug_aranges
                0x00001060      0x290 c:/devkitPro/libctru/lib\libctru.a(svc.o)
 .debug_aranges
                0x000012f0       0x20 c:/devkitPro/libctru/lib\libctru.a(stack_adjust.o)
 .debug_aranges
                0x00001310       0x40 c:/devkitPro/libctru/lib\libctru.a(mappable.o)
 .debug_aranges
                0x00001350       0x28 c:/devkitPro/libctru/lib\libctru.a(env.o)
 .debug_aranges
                0x00001378       0xa8 c:/devkitPro/libctru/lib\libctru.a(srv.o)
 .debug_aranges
                0x00001420       0xa8 c:/devkitPro/libctru/lib\libctru.a(synchronization.o)
 .debug_aranges
                0x000014c8       0x58 c:/devkitPro/libctru/lib\libctru.a(thread.o)
 .debug_aranges
                0x00001520       0x28 c:/devkitPro/libctru/lib\libctru.a(rbtree_iterator.o)
 .debug_aranges
                0x00001548       0x20 c:/devkitPro/libctru/lib\libctru.a(appExit.o)
 .debug_aranges
                0x00001568       0x20 c:/devkitPro/libctru/lib\libctru.a(appInit.o)
 .debug_aranges
                0x00001588       0x20 c:/devkitPro/libctru/lib\libctru.a(ctru_exit.o)
 .debug_aranges
                0x000015a8      0x108 c:/devkitPro/libctru/lib\libctru.a(sdmc_dev.o)
 .debug_aranges
                0x000016b0      0x3b0 c:/devkitPro/libctru/lib\libctru.a(fs.o)
 .debug_aranges
                0x00001a60       0x20 c:/devkitPro/libctru/lib\libctru.a(decode_utf8.o)
 .debug_aranges
                0x00001a80       0x20 c:/devkitPro/libctru/lib\libctru.a(utf16_to_utf8.o)
 .debug_aranges
                0x00001aa0       0x20 c:/devkitPro/libctru/lib\libctru.a(utf8_to_utf16.o)
 .debug_aranges
                0x00001ac0       0x20 c:/devkitPro/libctru/lib\libctru.a(readtp.o)
 .debug_aranges
                0x00001ae0       0x20 c:/devkitPro/libctru/lib\libctru.a(decode_utf16.o)
 .debug_aranges
                0x00001b00       0x20 c:/devkitPro/libctru/lib\libctru.a(encode_utf16.o)
 .debug_aranges
                0x00001b20       0x20 c:/devkitPro/libctru/lib\libctru.a(encode_utf8.o)

.debug_pubnames
 *(.debug_pubnames)

.debug_info     0x00000000    0x3972d
 *(.debug_info)
 .debug_info    0x00000000      0xb5c ball.o
 .debug_info    0x00000b5c       0x90 ball_tex.o
 .debug_info    0x00000bec      0x9ef button.o
 .debug_info    0x000015db       0x90 button_Selector_Tex.o
 .debug_info    0x0000166b       0x90 double_Button_Tex.o
 .debug_info    0x000016fb       0x90 game_title_tex.o
 .debug_info    0x0000178b      0xd72 main.o
 .debug_info    0x000024fd     0x1030 menu.o
 .debug_info    0x0000352d       0x94 menu_Title_Tex.o
 .debug_info    0x000035c1       0x90 midline_Tex.o
 .debug_info    0x00003651      0x920 paddle.o
 .debug_info    0x00003f71       0x90 paddle_tex.o
 .debug_info    0x00004001       0x90 quit_Button_Tex.o
 .debug_info    0x00004091       0x90 single_Button_Tex.o
 .debug_info    0x00004121      0xe8d two_player_mode.o
 .debug_info    0x00004fae     0x19b0 c:/devkitPro/libctru/lib\libsf2d.a(sf2d.o)
 .debug_info    0x0000695e     0x542c c:/devkitPro/libctru/lib\libsf2d.a(sf2d_texture.o)
 .debug_info    0x0000bd8a     0x148c c:/devkitPro/libctru/lib\libcitro3d.a(attribs.o)
 .debug_info    0x0000d216     0x2543 c:/devkitPro/libctru/lib\libcitro3d.a(base.o)
 .debug_info    0x0000f759     0x1459 c:/devkitPro/libctru/lib\libcitro3d.a(buffers.o)
 .debug_info    0x00010bb2     0x15bd c:/devkitPro/libctru/lib\libcitro3d.a(drawArrays.o)
 .debug_info    0x0001216f     0x1a8b c:/devkitPro/libctru/lib\libcitro3d.a(effect.o)
 .debug_info    0x00013bfa     0x171c c:/devkitPro/libctru/lib\libcitro3d.a(immediate.o)
 .debug_info    0x00015316     0x19f1 c:/devkitPro/libctru/lib\libcitro3d.a(renderbuffer.o)
 .debug_info    0x00016d07     0x2386 c:/devkitPro/libctru/lib\libcitro3d.a(renderqueue.o)
 .debug_info    0x0001908d     0x146f c:/devkitPro/libctru/lib\libcitro3d.a(texenv.o)
 .debug_info    0x0001a4fc     0x16ac c:/devkitPro/libctru/lib\libcitro3d.a(texture.o)
 .debug_info    0x0001bba8      0xc5e c:/devkitPro/libctru/lib\libcitro3d.a(uniforms.o)
 .debug_info    0x0001c806      0x6f4 c:/devkitPro/libctru/lib\libcitro3d.a(mtx_orthotilt.o)
 .debug_info    0x0001cefa      0x5ea c:/devkitPro/libctru/lib\libcitro3d.a(mtx_identity.o)
 .debug_info    0x0001d4e4      0x5d4 c:/devkitPro/libctru/lib\libcitro3d.a(mtx_multiply.o)
 .debug_info    0x0001dab8      0x8d9 c:/devkitPro/libctru/lib\libctru.a(linear.o)
 .debug_info    0x0001e391      0x8a8 c:/devkitPro/libctru/lib\libctru.a(mem_pool.o)
 .debug_info    0x0001ec39      0x8c3 c:/devkitPro/libctru/lib\libctru.a(vram.o)
 .debug_info    0x0001f4fc      0xc1c c:/devkitPro/libctru/lib\libctru.a(gfx.o)
 .debug_info    0x00020118      0xd4e c:/devkitPro/libctru/lib\libctru.a(os.o)
 .debug_info    0x00020e66      0x70c c:/devkitPro/libctru/lib\libctru.a(gpu.o)
 .debug_info    0x00021572      0x455 c:/devkitPro/libctru/lib\libctru.a(gx.o)
 .debug_info    0x000219c7     0x1340 c:/devkitPro/libctru/lib\libctru.a(shaderProgram.o)
 .debug_info    0x00022d07      0x70a c:/devkitPro/libctru/lib\libctru.a(shbin.o)
 .debug_info    0x00023411     0x35b0 c:/devkitPro/libctru/lib\libctru.a(apt.o)
 .debug_info    0x000269c1     0x14cc c:/devkitPro/libctru/lib\libctru.a(gspgpu.o)
 .debug_info    0x00027e8d      0xde4 c:/devkitPro/libctru/lib\libctru.a(hid.o)
 .debug_info    0x00028c71      0x859 c:/devkitPro/libctru/lib\libctru.a(irrst.o)
 .debug_info    0x000294ca      0x29f c:/devkitPro/libctru/lib\libctru.a(ptmsysm.o)
 .debug_info    0x00029769      0x1d0 c:/devkitPro/libctru/lib\libctru.a(rbtree_find.o)
 .debug_info    0x00029939      0x17f c:/devkitPro/libctru/lib\libctru.a(rbtree_init.o)
 .debug_info    0x00029ab8      0x5ef c:/devkitPro/libctru/lib\libctru.a(rbtree_insert.o)
 .debug_info    0x0002a0a7      0x7cf c:/devkitPro/libctru/lib\libctru.a(rbtree_remove.o)
 .debug_info    0x0002a876      0x2b2 c:/devkitPro/libctru/lib\libctru.a(rbtree_rotate.o)
 .debug_info    0x0002ab28      0x469 c:/devkitPro/libctru/lib\libctru.a(allocateHeaps.o)
 .debug_info    0x0002af91      0x1d2 c:/devkitPro/libctru/lib\libctru.a(initArgv.o)
 .debug_info    0x0002b163      0x1c0 c:/devkitPro/libctru/lib\libctru.a(initSystem.o)
 .debug_info    0x0002b323      0xd0f c:/devkitPro/libctru/lib\libctru.a(syscalls.o)
 .debug_info    0x0002c032       0xa9 c:/devkitPro/libctru/lib\libctru.a(svc.o)
 .debug_info    0x0002c0db       0xbd c:/devkitPro/libctru/lib\libctru.a(stack_adjust.o)
 .debug_info    0x0002c198      0x834 c:/devkitPro/libctru/lib\libctru.a(mappable.o)
 .debug_info    0x0002c9cc      0x271 c:/devkitPro/libctru/lib\libctru.a(env.o)
 .debug_info    0x0002cc3d      0xc9f c:/devkitPro/libctru/lib\libctru.a(srv.o)
 .debug_info    0x0002d8dc     0x10ce c:/devkitPro/libctru/lib\libctru.a(synchronization.o)
 .debug_info    0x0002e9aa     0x100b c:/devkitPro/libctru/lib\libctru.a(thread.o)
 .debug_info    0x0002f9b5      0x2ee c:/devkitPro/libctru/lib\libctru.a(rbtree_iterator.o)
 .debug_info    0x0002fca3       0xf7 c:/devkitPro/libctru/lib\libctru.a(appExit.o)
 .debug_info    0x0002fd9a       0xf7 c:/devkitPro/libctru/lib\libctru.a(appInit.o)
 .debug_info    0x0002fe91      0x25b c:/devkitPro/libctru/lib\libctru.a(ctru_exit.o)
 .debug_info    0x000300ec     0x29e5 c:/devkitPro/libctru/lib\libctru.a(sdmc_dev.o)
 .debug_info    0x00032ad1     0x63c7 c:/devkitPro/libctru/lib\libctru.a(fs.o)
 .debug_info    0x00038e98      0x143 c:/devkitPro/libctru/lib\libctru.a(decode_utf8.o)
 .debug_info    0x00038fdb      0x1c0 c:/devkitPro/libctru/lib\libctru.a(utf16_to_utf8.o)
 .debug_info    0x0003919b      0x1c0 c:/devkitPro/libctru/lib\libctru.a(utf8_to_utf16.o)
 .debug_info    0x0003935b       0xb7 c:/devkitPro/libctru/lib\libctru.a(readtp.o)
 .debug_info    0x00039412      0x123 c:/devkitPro/libctru/lib\libctru.a(decode_utf16.o)
 .debug_info    0x00039535       0xfc c:/devkitPro/libctru/lib\libctru.a(encode_utf16.o)
 .debug_info    0x00039631       0xfc c:/devkitPro/libctru/lib\libctru.a(encode_utf8.o)

.debug_abbrev   0x00000000     0x9012
 *(.debug_abbrev)
 .debug_abbrev  0x00000000      0x287 ball.o
 .debug_abbrev  0x00000287       0x5f ball_tex.o
 .debug_abbrev  0x000002e6      0x218 button.o
 .debug_abbrev  0x000004fe       0x5f button_Selector_Tex.o
 .debug_abbrev  0x0000055d       0x5f double_Button_Tex.o
 .debug_abbrev  0x000005bc       0x5f game_title_tex.o
 .debug_abbrev  0x0000061b      0x217 main.o
 .debug_abbrev  0x00000832      0x2b1 menu.o
 .debug_abbrev  0x00000ae3       0x5f menu_Title_Tex.o
 .debug_abbrev  0x00000b42       0x5f midline_Tex.o
 .debug_abbrev  0x00000ba1      0x1ec paddle.o
 .debug_abbrev  0x00000d8d       0x5f paddle_tex.o
 .debug_abbrev  0x00000dec       0x5f quit_Button_Tex.o
 .debug_abbrev  0x00000e4b       0x5f single_Button_Tex.o
 .debug_abbrev  0x00000eaa      0x270 two_player_mode.o
 .debug_abbrev  0x0000111a      0x3ad c:/devkitPro/libctru/lib\libsf2d.a(sf2d.o)
 .debug_abbrev  0x000014c7      0x46f c:/devkitPro/libctru/lib\libsf2d.a(sf2d_texture.o)
 .debug_abbrev  0x00001936      0x29f c:/devkitPro/libctru/lib\libcitro3d.a(attribs.o)
 .debug_abbrev  0x00001bd5      0x493 c:/devkitPro/libctru/lib\libcitro3d.a(base.o)
 .debug_abbrev  0x00002068      0x2a4 c:/devkitPro/libctru/lib\libcitro3d.a(buffers.o)
 .debug_abbrev  0x0000230c      0x267 c:/devkitPro/libctru/lib\libcitro3d.a(drawArrays.o)
 .debug_abbrev  0x00002573      0x2d1 c:/devkitPro/libctru/lib\libcitro3d.a(effect.o)
 .debug_abbrev  0x00002844      0x2ac c:/devkitPro/libctru/lib\libcitro3d.a(immediate.o)
 .debug_abbrev  0x00002af0      0x308 c:/devkitPro/libctru/lib\libcitro3d.a(renderbuffer.o)
 .debug_abbrev  0x00002df8      0x458 c:/devkitPro/libctru/lib\libcitro3d.a(renderqueue.o)
 .debug_abbrev  0x00003250      0x27b c:/devkitPro/libctru/lib\libcitro3d.a(texenv.o)
 .debug_abbrev  0x000034cb      0x2fd c:/devkitPro/libctru/lib\libcitro3d.a(texture.o)
 .debug_abbrev  0x000037c8      0x222 c:/devkitPro/libctru/lib\libcitro3d.a(uniforms.o)
 .debug_abbrev  0x000039ea      0x1b5 c:/devkitPro/libctru/lib\libcitro3d.a(mtx_orthotilt.o)
 .debug_abbrev  0x00003b9f      0x177 c:/devkitPro/libctru/lib\libcitro3d.a(mtx_identity.o)
 .debug_abbrev  0x00003d16      0x12c c:/devkitPro/libctru/lib\libcitro3d.a(mtx_multiply.o)
 .debug_abbrev  0x00003e42      0x2df c:/devkitPro/libctru/lib\libctru.a(linear.o)
 .debug_abbrev  0x00004121      0x269 c:/devkitPro/libctru/lib\libctru.a(mem_pool.o)
 .debug_abbrev  0x0000438a      0x2ce c:/devkitPro/libctru/lib\libctru.a(vram.o)
 .debug_abbrev  0x00004658      0x2e1 c:/devkitPro/libctru/lib\libctru.a(gfx.o)
 .debug_abbrev  0x00004939      0x2d6 c:/devkitPro/libctru/lib\libctru.a(os.o)
 .debug_abbrev  0x00004c0f      0x21b c:/devkitPro/libctru/lib\libctru.a(gpu.o)
 .debug_abbrev  0x00004e2a       0xee c:/devkitPro/libctru/lib\libctru.a(gx.o)
 .debug_abbrev  0x00004f18      0x305 c:/devkitPro/libctru/lib\libctru.a(shaderProgram.o)
 .debug_abbrev  0x0000521d      0x210 c:/devkitPro/libctru/lib\libctru.a(shbin.o)
 .debug_abbrev  0x0000542d      0x587 c:/devkitPro/libctru/lib\libctru.a(apt.o)
 .debug_abbrev  0x000059b4      0x3db c:/devkitPro/libctru/lib\libctru.a(gspgpu.o)
 .debug_abbrev  0x00005d8f      0x30b c:/devkitPro/libctru/lib\libctru.a(hid.o)
 .debug_abbrev  0x0000609a      0x2b5 c:/devkitPro/libctru/lib\libctru.a(irrst.o)
 .debug_abbrev  0x0000634f      0x1a4 c:/devkitPro/libctru/lib\libctru.a(ptmsysm.o)
 .debug_abbrev  0x000064f3       0xec c:/devkitPro/libctru/lib\libctru.a(rbtree_find.o)
 .debug_abbrev  0x000065df       0xb0 c:/devkitPro/libctru/lib\libctru.a(rbtree_init.o)
 .debug_abbrev  0x0000668f      0x226 c:/devkitPro/libctru/lib\libctru.a(rbtree_insert.o)
 .debug_abbrev  0x000068b5      0x1f2 c:/devkitPro/libctru/lib\libctru.a(rbtree_remove.o)
 .debug_abbrev  0x00006aa7      0x172 c:/devkitPro/libctru/lib\libctru.a(rbtree_rotate.o)
 .debug_abbrev  0x00006c19      0x1ba c:/devkitPro/libctru/lib\libctru.a(allocateHeaps.o)
 .debug_abbrev  0x00006dd3      0x10e c:/devkitPro/libctru/lib\libctru.a(initArgv.o)
 .debug_abbrev  0x00006ee1      0x10b c:/devkitPro/libctru/lib\libctru.a(initSystem.o)
 .debug_abbrev  0x00006fec      0x2b7 c:/devkitPro/libctru/lib\libctru.a(syscalls.o)
 .debug_abbrev  0x000072a3       0x12 c:/devkitPro/libctru/lib\libctru.a(svc.o)
 .debug_abbrev  0x000072b5       0x14 c:/devkitPro/libctru/lib\libctru.a(stack_adjust.o)
 .debug_abbrev  0x000072c9      0x2bf c:/devkitPro/libctru/lib\libctru.a(mappable.o)
 .debug_abbrev  0x00007588      0x1a2 c:/devkitPro/libctru/lib\libctru.a(env.o)
 .debug_abbrev  0x0000772a      0x230 c:/devkitPro/libctru/lib\libctru.a(srv.o)
 .debug_abbrev  0x0000795a      0x2eb c:/devkitPro/libctru/lib\libctru.a(synchronization.o)
 .debug_abbrev  0x00007c45      0x3a9 c:/devkitPro/libctru/lib\libctru.a(thread.o)
 .debug_abbrev  0x00007fee      0x176 c:/devkitPro/libctru/lib\libctru.a(rbtree_iterator.o)
 .debug_abbrev  0x00008164       0x6c c:/devkitPro/libctru/lib\libctru.a(appExit.o)
 .debug_abbrev  0x000081d0       0x6c c:/devkitPro/libctru/lib\libctru.a(appInit.o)
 .debug_abbrev  0x0000823c      0x11c c:/devkitPro/libctru/lib\libctru.a(ctru_exit.o)
 .debug_abbrev  0x00008358      0x425 c:/devkitPro/libctru/lib\libctru.a(sdmc_dev.o)
 .debug_abbrev  0x0000877d      0x4da c:/devkitPro/libctru/lib\libctru.a(fs.o)
 .debug_abbrev  0x00008c57       0x7f c:/devkitPro/libctru/lib\libctru.a(decode_utf8.o)
 .debug_abbrev  0x00008cd6       0xe4 c:/devkitPro/libctru/lib\libctru.a(utf16_to_utf8.o)
 .debug_abbrev  0x00008dba       0xe4 c:/devkitPro/libctru/lib\libctru.a(utf8_to_utf16.o)
 .debug_abbrev  0x00008e9e       0x14 c:/devkitPro/libctru/lib\libctru.a(readtp.o)
 .debug_abbrev  0x00008eb2       0x8e c:/devkitPro/libctru/lib\libctru.a(decode_utf16.o)
 .debug_abbrev  0x00008f40       0x69 c:/devkitPro/libctru/lib\libctru.a(encode_utf16.o)
 .debug_abbrev  0x00008fa9       0x69 c:/devkitPro/libctru/lib\libctru.a(encode_utf8.o)

.debug_line     0x00000000     0xf131
 *(.debug_line)
 .debug_line    0x00000000      0x2e0 ball.o
 .debug_line    0x000002e0       0x47 ball_tex.o
 .debug_line    0x00000327      0x275 button.o
 .debug_line    0x0000059c       0x52 button_Selector_Tex.o
 .debug_line    0x000005ee       0x50 double_Button_Tex.o
 .debug_line    0x0000063e       0x4d game_title_tex.o
 .debug_line    0x0000068b      0x2f7 main.o
 .debug_line    0x00000982      0x311 menu.o
 .debug_line    0x00000c93       0x4d menu_Title_Tex.o
 .debug_line    0x00000ce0       0x4a midline_Tex.o
 .debug_line    0x00000d2a      0x269 paddle.o
 .debug_line    0x00000f93       0x49 paddle_tex.o
 .debug_line    0x00000fdc       0x4e quit_Button_Tex.o
 .debug_line    0x0000102a       0x50 single_Button_Tex.o
 .debug_line    0x0000107a      0x308 two_player_mode.o
 .debug_line    0x00001382      0x60e c:/devkitPro/libctru/lib\libsf2d.a(sf2d.o)
 .debug_line    0x00001990      0xc81 c:/devkitPro/libctru/lib\libsf2d.a(sf2d_texture.o)
 .debug_line    0x00002611      0x327 c:/devkitPro/libctru/lib\libcitro3d.a(attribs.o)
 .debug_line    0x00002938      0x5e0 c:/devkitPro/libctru/lib\libcitro3d.a(base.o)
 .debug_line    0x00002f18      0x30c c:/devkitPro/libctru/lib\libcitro3d.a(buffers.o)
 .debug_line    0x00003224      0x2ae c:/devkitPro/libctru/lib\libcitro3d.a(drawArrays.o)
 .debug_line    0x000034d2      0x40e c:/devkitPro/libctru/lib\libcitro3d.a(effect.o)
 .debug_line    0x000038e0      0x30b c:/devkitPro/libctru/lib\libcitro3d.a(immediate.o)
 .debug_line    0x00003beb      0x40d c:/devkitPro/libctru/lib\libcitro3d.a(renderbuffer.o)
 .debug_line    0x00003ff8      0x6ec c:/devkitPro/libctru/lib\libcitro3d.a(renderqueue.o)
 .debug_line    0x000046e4      0x314 c:/devkitPro/libctru/lib\libcitro3d.a(texenv.o)
 .debug_line    0x000049f8      0x3d3 c:/devkitPro/libctru/lib\libcitro3d.a(texture.o)
 .debug_line    0x00004dcb      0x33d c:/devkitPro/libctru/lib\libcitro3d.a(uniforms.o)
 .debug_line    0x00005108      0x1d2 c:/devkitPro/libctru/lib\libcitro3d.a(mtx_orthotilt.o)
 .debug_line    0x000052da      0x1ae c:/devkitPro/libctru/lib\libcitro3d.a(mtx_identity.o)
 .debug_line    0x00005488      0x1aa c:/devkitPro/libctru/lib\libcitro3d.a(mtx_multiply.o)
 .debug_line    0x00005632      0x2fb c:/devkitPro/libctru/lib\libctru.a(linear.o)
 .debug_line    0x0000592d      0x2f2 c:/devkitPro/libctru/lib\libctru.a(mem_pool.o)
 .debug_line    0x00005c1f      0x2f8 c:/devkitPro/libctru/lib\libctru.a(vram.o)
 .debug_line    0x00005f17      0x4a0 c:/devkitPro/libctru/lib\libctru.a(gfx.o)
 .debug_line    0x000063b7      0x341 c:/devkitPro/libctru/lib\libctru.a(os.o)
 .debug_line    0x000066f8      0x333 c:/devkitPro/libctru/lib\libctru.a(gpu.o)
 .debug_line    0x00006a2b      0x270 c:/devkitPro/libctru/lib\libctru.a(gx.o)
 .debug_line    0x00006c9b      0x51c c:/devkitPro/libctru/lib\libctru.a(shaderProgram.o)
 .debug_line    0x000071b7      0x328 c:/devkitPro/libctru/lib\libctru.a(shbin.o)
 .debug_line    0x000074df      0xcdc c:/devkitPro/libctru/lib\libctru.a(apt.o)
 .debug_line    0x000081bb      0x674 c:/devkitPro/libctru/lib\libctru.a(gspgpu.o)
 .debug_line    0x0000882f      0x48e c:/devkitPro/libctru/lib\libctru.a(hid.o)
 .debug_line    0x00008cbd      0x384 c:/devkitPro/libctru/lib\libctru.a(irrst.o)
 .debug_line    0x00009041      0x1ad c:/devkitPro/libctru/lib\libctru.a(ptmsysm.o)
 .debug_line    0x000091ee      0x1bc c:/devkitPro/libctru/lib\libctru.a(rbtree_find.o)
 .debug_line    0x000093aa      0x1aa c:/devkitPro/libctru/lib\libctru.a(rbtree_init.o)
 .debug_line    0x00009554      0x27d c:/devkitPro/libctru/lib\libctru.a(rbtree_insert.o)
 .debug_line    0x000097d1      0x310 c:/devkitPro/libctru/lib\libctru.a(rbtree_remove.o)
 .debug_line    0x00009ae1      0x1ff c:/devkitPro/libctru/lib\libctru.a(rbtree_rotate.o)
 .debug_line    0x00009ce0      0x1ce c:/devkitPro/libctru/lib\libctru.a(allocateHeaps.o)
 .debug_line    0x00009eae      0x1b4 c:/devkitPro/libctru/lib\libctru.a(initArgv.o)
 .debug_line    0x0000a062      0x169 c:/devkitPro/libctru/lib\libctru.a(initSystem.o)
 .debug_line    0x0000a1cb      0x2d3 c:/devkitPro/libctru/lib\libctru.a(syscalls.o)
 .debug_line    0x0000a49e      0x63e c:/devkitPro/libctru/lib\libctru.a(svc.o)
 .debug_line    0x0000aadc       0x9d c:/devkitPro/libctru/lib\libctru.a(stack_adjust.o)
 .debug_line    0x0000ab79      0x2bd c:/devkitPro/libctru/lib\libctru.a(mappable.o)
 .debug_line    0x0000ae36      0x190 c:/devkitPro/libctru/lib\libctru.a(env.o)
 .debug_line    0x0000afc6      0x3e3 c:/devkitPro/libctru/lib\libctru.a(srv.o)
 .debug_line    0x0000b3a9      0x53d c:/devkitPro/libctru/lib\libctru.a(synchronization.o)
 .debug_line    0x0000b8e6      0x344 c:/devkitPro/libctru/lib\libctru.a(thread.o)
 .debug_line    0x0000bc2a      0x1c3 c:/devkitPro/libctru/lib\libctru.a(rbtree_iterator.o)
 .debug_line    0x0000bded      0x144 c:/devkitPro/libctru/lib\libctru.a(appExit.o)
 .debug_line    0x0000bf31      0x144 c:/devkitPro/libctru/lib\libctru.a(appInit.o)
 .debug_line    0x0000c075      0x175 c:/devkitPro/libctru/lib\libctru.a(ctru_exit.o)
 .debug_line    0x0000c1ea      0x7ef c:/devkitPro/libctru/lib\libctru.a(sdmc_dev.o)
 .debug_line    0x0000c9d9     0x1ce7 c:/devkitPro/libctru/lib\libctru.a(fs.o)
 .debug_line    0x0000e6c0      0x187 c:/devkitPro/libctru/lib\libctru.a(decode_utf8.o)
 .debug_line    0x0000e847      0x214 c:/devkitPro/libctru/lib\libctru.a(utf16_to_utf8.o)
 .debug_line    0x0000ea5b      0x20e c:/devkitPro/libctru/lib\libctru.a(utf8_to_utf16.o)
 .debug_line    0x0000ec69       0x7f c:/devkitPro/libctru/lib\libctru.a(readtp.o)
 .debug_line    0x0000ece8      0x15a c:/devkitPro/libctru/lib\libctru.a(decode_utf16.o)
 .debug_line    0x0000ee42      0x164 c:/devkitPro/libctru/lib\libctru.a(encode_utf16.o)
 .debug_line    0x0000efa6      0x18b c:/devkitPro/libctru/lib\libctru.a(encode_utf8.o)

.debug_frame    0x00000000     0x4a90
 *(.debug_frame)
 .debug_frame   0x00000000       0xd8 ball.o
 .debug_frame   0x000000d8       0x90 button.o
 .debug_frame   0x00000168       0x34 main.o
 .debug_frame   0x0000019c       0xcc menu.o
 .debug_frame   0x00000268       0x60 paddle.o
 .debug_frame   0x000002c8       0xa4 two_player_mode.o
 .debug_frame   0x0000036c      0x1ec c:/devkitPro/libctru/lib\libsf2d.a(sf2d.o)
 .debug_frame   0x00000558      0x894 c:/devkitPro/libctru/lib\libsf2d.a(sf2d_texture.o)
 .debug_frame   0x00000dec       0xa8 c:/devkitPro/libctru/lib\libcitro3d.a(attribs.o)
 .debug_frame   0x00000e94      0x1a8 c:/devkitPro/libctru/lib\libcitro3d.a(base.o)
 .debug_frame   0x0000103c       0x98 c:/devkitPro/libctru/lib\libcitro3d.a(buffers.o)
 .debug_frame   0x000010d4       0x34 c:/devkitPro/libctru/lib\libcitro3d.a(drawArrays.o)
 .debug_frame   0x00001108       0xf8 c:/devkitPro/libctru/lib\libcitro3d.a(effect.o)
 .debug_frame   0x00001200       0x88 c:/devkitPro/libctru/lib\libcitro3d.a(immediate.o)
 .debug_frame   0x00001288       0xd0 c:/devkitPro/libctru/lib\libcitro3d.a(renderbuffer.o)
 .debug_frame   0x00001358      0x33c c:/devkitPro/libctru/lib\libcitro3d.a(renderqueue.o)
 .debug_frame   0x00001694       0x7c c:/devkitPro/libctru/lib\libcitro3d.a(texenv.o)
 .debug_frame   0x00001710       0xc8 c:/devkitPro/libctru/lib\libcitro3d.a(texture.o)
 .debug_frame   0x000017d8       0x8c c:/devkitPro/libctru/lib\libcitro3d.a(uniforms.o)
 .debug_frame   0x00001864       0x58 c:/devkitPro/libctru/lib\libcitro3d.a(mtx_orthotilt.o)
 .debug_frame   0x000018bc       0x28 c:/devkitPro/libctru/lib\libcitro3d.a(mtx_identity.o)
 .debug_frame   0x000018e4       0x2c c:/devkitPro/libctru/lib\libcitro3d.a(mtx_multiply.o)
 .debug_frame   0x00001910       0xc0 c:/devkitPro/libctru/lib\libctru.a(linear.o)
 .debug_frame   0x000019d0       0xa8 c:/devkitPro/libctru/lib\libctru.a(mem_pool.o)
 .debug_frame   0x00001a78       0xb4 c:/devkitPro/libctru/lib\libctru.a(vram.o)
 .debug_frame   0x00001b2c      0x1bc c:/devkitPro/libctru/lib\libctru.a(gfx.o)
 .debug_frame   0x00001ce8      0x100 c:/devkitPro/libctru/lib\libctru.a(os.o)
 .debug_frame   0x00001de8      0x128 c:/devkitPro/libctru/lib\libctru.a(gpu.o)
 .debug_frame   0x00001f10       0xd8 c:/devkitPro/libctru/lib\libctru.a(gx.o)
 .debug_frame   0x00001fe8      0x220 c:/devkitPro/libctru/lib\libctru.a(shaderProgram.o)
 .debug_frame   0x00002208       0xa8 c:/devkitPro/libctru/lib\libctru.a(shbin.o)
 .debug_frame   0x000022b0      0x718 c:/devkitPro/libctru/lib\libctru.a(apt.o)
 .debug_frame   0x000029c8      0x2ac c:/devkitPro/libctru/lib\libctru.a(gspgpu.o)
 .debug_frame   0x00002c74      0x204 c:/devkitPro/libctru/lib\libctru.a(hid.o)
 .debug_frame   0x00002e78      0x114 c:/devkitPro/libctru/lib\libctru.a(irrst.o)
 .debug_frame   0x00002f8c       0x50 c:/devkitPro/libctru/lib\libctru.a(ptmsysm.o)
 .debug_frame   0x00002fdc       0x30 c:/devkitPro/libctru/lib\libctru.a(rbtree_find.o)
 .debug_frame   0x0000300c       0x20 c:/devkitPro/libctru/lib\libctru.a(rbtree_init.o)
 .debug_frame   0x0000302c       0x54 c:/devkitPro/libctru/lib\libctru.a(rbtree_insert.o)
 .debug_frame   0x00003080       0x40 c:/devkitPro/libctru/lib\libctru.a(rbtree_remove.o)
 .debug_frame   0x000030c0       0x2c c:/devkitPro/libctru/lib\libctru.a(rbtree_rotate.o)
 .debug_frame   0x000030ec       0x54 c:/devkitPro/libctru/lib\libctru.a(allocateHeaps.o)
 .debug_frame   0x00003140       0x2c c:/devkitPro/libctru/lib\libctru.a(initArgv.o)
 .debug_frame   0x0000316c       0x2c c:/devkitPro/libctru/lib\libctru.a(initSystem.o)
 .debug_frame   0x00003198       0x4c c:/devkitPro/libctru/lib\libctru.a(syscalls.o)
 .debug_frame   0x000031e4       0x88 c:/devkitPro/libctru/lib\libctru.a(mappable.o)
 .debug_frame   0x0000326c       0x50 c:/devkitPro/libctru/lib\libctru.a(env.o)
 .debug_frame   0x000032bc      0x1f8 c:/devkitPro/libctru/lib\libctru.a(srv.o)
 .debug_frame   0x000034b4      0x1c8 c:/devkitPro/libctru/lib\libctru.a(synchronization.o)
 .debug_frame   0x0000367c       0xdc c:/devkitPro/libctru/lib\libctru.a(thread.o)
 .debug_frame   0x00003758       0x30 c:/devkitPro/libctru/lib\libctru.a(rbtree_iterator.o)
 .debug_frame   0x00003788       0x2c c:/devkitPro/libctru/lib\libctru.a(appExit.o)
 .debug_frame   0x000037b4       0x2c c:/devkitPro/libctru/lib\libctru.a(appInit.o)
 .debug_frame   0x000037e0       0x28 c:/devkitPro/libctru/lib\libctru.a(ctru_exit.o)
 .debug_frame   0x00003808      0x43c c:/devkitPro/libctru/lib\libctru.a(sdmc_dev.o)
 .debug_frame   0x00003c44      0xd3c c:/devkitPro/libctru/lib\libctru.a(fs.o)
 .debug_frame   0x00004980       0x30 c:/devkitPro/libctru/lib\libctru.a(decode_utf8.o)
 .debug_frame   0x000049b0       0x3c c:/devkitPro/libctru/lib\libctru.a(utf16_to_utf8.o)
 .debug_frame   0x000049ec       0x3c c:/devkitPro/libctru/lib\libctru.a(utf8_to_utf16.o)
 .debug_frame   0x00004a28       0x28 c:/devkitPro/libctru/lib\libctru.a(decode_utf16.o)
 .debug_frame   0x00004a50       0x20 c:/devkitPro/libctru/lib\libctru.a(encode_utf16.o)
 .debug_frame   0x00004a70       0x20 c:/devkitPro/libctru/lib\libctru.a(encode_utf8.o)

.debug_str      0x00000000     0x96d8
 *(.debug_str)
 .debug_str     0x00000000      0x6b2 ball.o
                                0x754 (size before relaxing)
 .debug_str     0x000006b2       0x27 ball_tex.o
                                 0xf2 (size before relaxing)
 .debug_str     0x000006d9      0x256 button.o
                                0x77c (size before relaxing)
 .debug_str     0x0000092f       0x46 button_Selector_Tex.o
                                0x108 (size before relaxing)
 .debug_str     0x00000975       0x42 double_Button_Tex.o
                                0x104 (size before relaxing)
 .debug_str     0x000009b7       0x3c game_title_tex.o
                                 0xfe (size before relaxing)
 .debug_str     0x000009f3      0x352 main.o
                                0xa4b (size before relaxing)
 .debug_str     0x00000d45       0xb5 menu.o
                                0xac7 (size before relaxing)
 .debug_str     0x00000dfa       0x2d menu_Title_Tex.o
                                 0xfe (size before relaxing)
 .debug_str     0x00000e27       0x2a midline_Tex.o
                                 0xf8 (size before relaxing)
 .debug_str     0x00000e51       0x82 paddle.o
                                0x6b2 (size before relaxing)
 .debug_str     0x00000ed3       0x29 paddle_tex.o
                                 0xf6 (size before relaxing)
 .debug_str     0x00000efc       0x2e quit_Button_Tex.o
                                0x100 (size before relaxing)
 .debug_str     0x00000f2a       0x30 single_Button_Tex.o
                                0x104 (size before relaxing)
 .debug_str     0x00000f5a       0x5e two_player_mode.o
                                0xa98 (size before relaxing)
 .debug_str     0x00000fb8      0x990 c:/devkitPro/libctru/lib\libsf2d.a(sf2d.o)
                               0x100e (size before relaxing)
 .debug_str     0x00001948      0xc7d c:/devkitPro/libctru/lib\libsf2d.a(sf2d_texture.o)
                               0x1495 (size before relaxing)
 .debug_str     0x000025c5      0x5fc c:/devkitPro/libctru/lib\libcitro3d.a(attribs.o)
                                0xedf (size before relaxing)
 .debug_str     0x00002bc1      0x5eb c:/devkitPro/libctru/lib\libcitro3d.a(base.o)
                               0x16c8 (size before relaxing)
 .debug_str     0x000031ac       0x7b c:/devkitPro/libctru/lib\libcitro3d.a(buffers.o)
                                0xeb3 (size before relaxing)
 .debug_str     0x00003227       0x6b c:/devkitPro/libctru/lib\libcitro3d.a(drawArrays.o)
                                0xeb0 (size before relaxing)
 .debug_str     0x00003292      0x11b c:/devkitPro/libctru/lib\libcitro3d.a(effect.o)
                               0x12b3 (size before relaxing)
 .debug_str     0x000033ad       0x79 c:/devkitPro/libctru/lib\libcitro3d.a(immediate.o)
                                0xee4 (size before relaxing)
 .debug_str     0x00003426      0x159 c:/devkitPro/libctru/lib\libcitro3d.a(renderbuffer.o)
                               0x10e2 (size before relaxing)
 .debug_str     0x0000357f      0x320 c:/devkitPro/libctru/lib\libcitro3d.a(renderqueue.o)
                               0x1561 (size before relaxing)
 .debug_str     0x0000389f       0xa9 c:/devkitPro/libctru/lib\libcitro3d.a(texenv.o)
                                0xfdd (size before relaxing)
 .debug_str     0x00003948      0x124 c:/devkitPro/libctru/lib\libcitro3d.a(texture.o)
                                0xfab (size before relaxing)
 .debug_str     0x00003a6c       0x8d c:/devkitPro/libctru/lib\libcitro3d.a(uniforms.o)
                                0x89e (size before relaxing)
 .debug_str     0x00003af9       0x7d c:/devkitPro/libctru/lib\libcitro3d.a(mtx_orthotilt.o)
                                0x4ab (size before relaxing)
 .debug_str     0x00003b76       0x53 c:/devkitPro/libctru/lib\libcitro3d.a(mtx_identity.o)
                                0x47d (size before relaxing)
 .debug_str     0x00003bc9       0x53 c:/devkitPro/libctru/lib\libcitro3d.a(mtx_multiply.o)
                                0x46c (size before relaxing)
 .debug_str     0x00003c1c      0x459 c:/devkitPro/libctru/lib\libctru.a(linear.o)
                                0x5c8 (size before relaxing)
 .debug_str     0x00004075       0x94 c:/devkitPro/libctru/lib\libctru.a(mem_pool.o)
                                0x464 (size before relaxing)
 .debug_str     0x00004109       0x8d c:/devkitPro/libctru/lib\libctru.a(vram.o)
                                0x58d (size before relaxing)
 .debug_str     0x00004196      0x4e2 c:/devkitPro/libctru/lib\libctru.a(gfx.o)
                                0x7db (size before relaxing)
 .debug_str     0x00004678      0x5b9 c:/devkitPro/libctru/lib\libctru.a(os.o)
                                0x7ea (size before relaxing)
 .debug_str     0x00004c31       0xff c:/devkitPro/libctru/lib\libctru.a(gpu.o)
                                0x36c (size before relaxing)
 .debug_str     0x00004d30       0x93 c:/devkitPro/libctru/lib\libctru.a(gx.o)
                                0x2e0 (size before relaxing)
 .debug_str     0x00004dc3      0x248 c:/devkitPro/libctru/lib\libctru.a(shaderProgram.o)
                                0x774 (size before relaxing)
 .debug_str     0x0000500b      0x14f c:/devkitPro/libctru/lib\libctru.a(shbin.o)
                                0x4bd (size before relaxing)
 .debug_str     0x0000515a     0x10a7 c:/devkitPro/libctru/lib\libctru.a(apt.o)
                               0x1515 (size before relaxing)
 .debug_str     0x00006201      0x3ab c:/devkitPro/libctru/lib\libctru.a(gspgpu.o)
                                0xa09 (size before relaxing)
 .debug_str     0x000065ac      0x339 c:/devkitPro/libctru/lib\libctru.a(hid.o)
                                0x7b4 (size before relaxing)
 .debug_str     0x000068e5      0x12f c:/devkitPro/libctru/lib\libctru.a(irrst.o)
                                0x53e (size before relaxing)
 .debug_str     0x00006a14       0x71 c:/devkitPro/libctru/lib\libctru.a(ptmsysm.o)
                                0x2e2 (size before relaxing)
 .debug_str     0x00006a85       0x5f c:/devkitPro/libctru/lib\libctru.a(rbtree_find.o)
                                0x233 (size before relaxing)
 .debug_str     0x00006ae4       0x5a c:/devkitPro/libctru/lib\libctru.a(rbtree_init.o)
                                0x229 (size before relaxing)
 .debug_str     0x00006b3e       0xfe c:/devkitPro/libctru/lib\libctru.a(rbtree_insert.o)
                                0x2eb (size before relaxing)
 .debug_str     0x00006c3c       0xaa c:/devkitPro/libctru/lib\libctru.a(rbtree_remove.o)
                                0x309 (size before relaxing)
 .debug_str     0x00006ce6       0x5c c:/devkitPro/libctru/lib\libctru.a(rbtree_rotate.o)
                                0x280 (size before relaxing)
 .debug_str     0x00006d42      0x1d4 c:/devkitPro/libctru/lib\libctru.a(allocateHeaps.o)
                                0x470 (size before relaxing)
 .debug_str     0x00006f16       0xa4 c:/devkitPro/libctru/lib\libctru.a(initArgv.o)
                                0x273 (size before relaxing)
 .debug_str     0x00006fba       0x85 c:/devkitPro/libctru/lib\libctru.a(initSystem.o)
                                0x286 (size before relaxing)
 .debug_str     0x0000703f      0x1b7 c:/devkitPro/libctru/lib\libctru.a(syscalls.o)
                                0x85d (size before relaxing)
 .debug_str     0x000071f6       0x84 c:/devkitPro/libctru/lib\libctru.a(mappable.o)
                                0x57c (size before relaxing)
 .debug_str     0x0000727a       0x88 c:/devkitPro/libctru/lib\libctru.a(env.o)
                                0x262 (size before relaxing)
 .debug_str     0x00007302      0x219 c:/devkitPro/libctru/lib\libctru.a(srv.o)
                                0x52c (size before relaxing)
 .debug_str     0x0000751b      0x17d c:/devkitPro/libctru/lib\libctru.a(synchronization.o)
                                0x4f3 (size before relaxing)
 .debug_str     0x00007698      0x154 c:/devkitPro/libctru/lib\libctru.a(thread.o)
                                0x815 (size before relaxing)
 .debug_str     0x000077ec       0x7a c:/devkitPro/libctru/lib\libctru.a(rbtree_iterator.o)
                                0x233 (size before relaxing)
 .debug_str     0x00007866       0x6b c:/devkitPro/libctru/lib\libctru.a(appExit.o)
                                0x1be (size before relaxing)
 .debug_str     0x000078d1       0x6b c:/devkitPro/libctru/lib\libctru.a(appInit.o)
                                0x1be (size before relaxing)
 .debug_str     0x0000793c       0x62 c:/devkitPro/libctru/lib\libctru.a(ctru_exit.o)
                                0x366 (size before relaxing)
 .debug_str     0x0000799e      0xb27 c:/devkitPro/libctru/lib\libctru.a(sdmc_dev.o)
                               0x11d8 (size before relaxing)
 .debug_str     0x000084c5      0xfbd c:/devkitPro/libctru/lib\libctru.a(fs.o)
                               0x1c98 (size before relaxing)
 .debug_str     0x00009482       0x6f c:/devkitPro/libctru/lib\libctru.a(decode_utf8.o)
                                0x1ed (size before relaxing)
 .debug_str     0x000094f1       0x7a c:/devkitPro/libctru/lib\libctru.a(utf16_to_utf8.o)
                                0x220 (size before relaxing)
 .debug_str     0x0000956b       0x66 c:/devkitPro/libctru/lib\libctru.a(utf8_to_utf16.o)
                                0x220 (size before relaxing)
 .debug_str     0x000095d1       0x58 c:/devkitPro/libctru/lib\libctru.a(decode_utf16.o)
                                0x1e5 (size before relaxing)
 .debug_str     0x00009629       0x58 c:/devkitPro/libctru/lib\libctru.a(encode_utf16.o)
                                0x1d9 (size before relaxing)
 .debug_str     0x00009681       0x57 c:/devkitPro/libctru/lib\libctru.a(encode_utf8.o)
                                0x1d5 (size before relaxing)

.debug_loc      0x00000000    0x165f2
 *(.debug_loc)
 .debug_loc     0x00000000      0x56f ball.o
 .debug_loc     0x0000056f       0x31 button.o
 .debug_loc     0x000005a0       0x7f main.o
 .debug_loc     0x0000061f      0x193 menu.o
 .debug_loc     0x000007b2       0xe6 paddle.o
 .debug_loc     0x00000898       0xfd two_player_mode.o
 .debug_loc     0x00000995      0x703 c:/devkitPro/libctru/lib\libsf2d.a(sf2d.o)
 .debug_loc     0x00001098     0x5568 c:/devkitPro/libctru/lib\libsf2d.a(sf2d_texture.o)
 .debug_loc     0x00006600      0x229 c:/devkitPro/libctru/lib\libcitro3d.a(attribs.o)
 .debug_loc     0x00006829      0x925 c:/devkitPro/libctru/lib\libcitro3d.a(base.o)
 .debug_loc     0x0000714e      0x210 c:/devkitPro/libctru/lib\libcitro3d.a(buffers.o)
 .debug_loc     0x0000735e      0x278 c:/devkitPro/libctru/lib\libcitro3d.a(drawArrays.o)
 .debug_loc     0x000075d6      0x3cf c:/devkitPro/libctru/lib\libcitro3d.a(effect.o)
 .debug_loc     0x000079a5      0x304 c:/devkitPro/libctru/lib\libcitro3d.a(immediate.o)
 .debug_loc     0x00007ca9      0x2e5 c:/devkitPro/libctru/lib\libcitro3d.a(renderbuffer.o)
 .debug_loc     0x00007f8e      0xa27 c:/devkitPro/libctru/lib\libcitro3d.a(renderqueue.o)
 .debug_loc     0x000089b5      0x12a c:/devkitPro/libctru/lib\libcitro3d.a(texenv.o)
 .debug_loc     0x00008adf      0x529 c:/devkitPro/libctru/lib\libcitro3d.a(texture.o)
 .debug_loc     0x00009008      0x327 c:/devkitPro/libctru/lib\libcitro3d.a(uniforms.o)
 .debug_loc     0x0000932f      0x13f c:/devkitPro/libctru/lib\libcitro3d.a(mtx_orthotilt.o)
 .debug_loc     0x0000946e       0x3c c:/devkitPro/libctru/lib\libcitro3d.a(mtx_identity.o)
 .debug_loc     0x000094aa       0x8a c:/devkitPro/libctru/lib\libcitro3d.a(mtx_multiply.o)
 .debug_loc     0x00009534      0x2ec c:/devkitPro/libctru/lib\libctru.a(linear.o)
 .debug_loc     0x00009820      0x8d3 c:/devkitPro/libctru/lib\libctru.a(mem_pool.o)
 .debug_loc     0x0000a0f3      0x2f2 c:/devkitPro/libctru/lib\libctru.a(vram.o)
 .debug_loc     0x0000a3e5      0x34b c:/devkitPro/libctru/lib\libctru.a(gfx.o)
 .debug_loc     0x0000a730      0x2e4 c:/devkitPro/libctru/lib\libctru.a(os.o)
 .debug_loc     0x0000aa14      0x568 c:/devkitPro/libctru/lib\libctru.a(gpu.o)
 .debug_loc     0x0000af7c      0x366 c:/devkitPro/libctru/lib\libctru.a(gx.o)
 .debug_loc     0x0000b2e2      0xdd0 c:/devkitPro/libctru/lib\libctru.a(shaderProgram.o)
 .debug_loc     0x0000c0b2      0x4ee c:/devkitPro/libctru/lib\libctru.a(shbin.o)
 .debug_loc     0x0000c5a0     0x1690 c:/devkitPro/libctru/lib\libctru.a(apt.o)
 .debug_loc     0x0000dc30      0x9f6 c:/devkitPro/libctru/lib\libctru.a(gspgpu.o)
 .debug_loc     0x0000e626      0x7bb c:/devkitPro/libctru/lib\libctru.a(hid.o)
 .debug_loc     0x0000ede1      0x3ab c:/devkitPro/libctru/lib\libctru.a(irrst.o)
 .debug_loc     0x0000f18c       0x34 c:/devkitPro/libctru/lib\libctru.a(ptmsysm.o)
 .debug_loc     0x0000f1c0      0x10d c:/devkitPro/libctru/lib\libctru.a(rbtree_find.o)
 .debug_loc     0x0000f2cd      0x3ec c:/devkitPro/libctru/lib\libctru.a(rbtree_insert.o)
 .debug_loc     0x0000f6b9      0x4b0 c:/devkitPro/libctru/lib\libctru.a(rbtree_remove.o)
 .debug_loc     0x0000fb69       0xa1 c:/devkitPro/libctru/lib\libctru.a(rbtree_rotate.o)
 .debug_loc     0x0000fc0a       0x49 c:/devkitPro/libctru/lib\libctru.a(allocateHeaps.o)
 .debug_loc     0x0000fc53       0xfb c:/devkitPro/libctru/lib\libctru.a(initArgv.o)
 .debug_loc     0x0000fd4e       0x21 c:/devkitPro/libctru/lib\libctru.a(initSystem.o)
 .debug_loc     0x0000fd6f       0x23 c:/devkitPro/libctru/lib\libctru.a(syscalls.o)
 .debug_loc     0x0000fd92      0x1bf c:/devkitPro/libctru/lib\libctru.a(mappable.o)
 .debug_loc     0x0000ff51      0x149 c:/devkitPro/libctru/lib\libctru.a(env.o)
 .debug_loc     0x0001009a      0x5b1 c:/devkitPro/libctru/lib\libctru.a(srv.o)
 .debug_loc     0x0001064b      0x954 c:/devkitPro/libctru/lib\libctru.a(synchronization.o)
 .debug_loc     0x00010f9f      0x398 c:/devkitPro/libctru/lib\libctru.a(thread.o)
 .debug_loc     0x00011337      0x39c c:/devkitPro/libctru/lib\libctru.a(rbtree_iterator.o)
 .debug_loc     0x000116d3       0x21 c:/devkitPro/libctru/lib\libctru.a(ctru_exit.o)
 .debug_loc     0x000116f4     0x147a c:/devkitPro/libctru/lib\libctru.a(sdmc_dev.o)
 .debug_loc     0x00012b6e     0x334a c:/devkitPro/libctru/lib\libctru.a(fs.o)
 .debug_loc     0x00015eb8      0x232 c:/devkitPro/libctru/lib\libctru.a(decode_utf8.o)
 .debug_loc     0x000160ea       0xec c:/devkitPro/libctru/lib\libctru.a(utf16_to_utf8.o)
 .debug_loc     0x000161d6       0xd2 c:/devkitPro/libctru/lib\libctru.a(utf8_to_utf16.o)
 .debug_loc     0x000162a8       0xc4 c:/devkitPro/libctru/lib\libctru.a(decode_utf16.o)
 .debug_loc     0x0001636c       0xdc c:/devkitPro/libctru/lib\libctru.a(encode_utf16.o)
 .debug_loc     0x00016448      0x1aa c:/devkitPro/libctru/lib\libctru.a(encode_utf8.o)

.debug_macinfo
 *(.debug_macinfo)
LOAD c:/devkitpro/devkitarm/bin/../lib/gcc/arm-none-eabi/5.3.0/../../../../arm-none-eabi/lib/armv6k/fpu/3dsx_crt0.o
LOAD c:/devkitpro/devkitarm/bin/../lib/gcc/arm-none-eabi/5.3.0/armv6k/fpu/crti.o
LOAD c:/devkitpro/devkitarm/bin/../lib/gcc/arm-none-eabi/5.3.0/armv6k/fpu/crtbegin.o
LOAD ball.o
LOAD ball_tex.o
LOAD button.o
LOAD button_Selector_Tex.o
LOAD double_Button_Tex.o
LOAD game_title_tex.o
LOAD main.o
LOAD menu.o
LOAD menu_Title_Tex.o
LOAD midline_Tex.o
LOAD paddle.o
LOAD paddle_tex.o
LOAD quit_Button_Tex.o
LOAD single_Button_Tex.o
LOAD two_player_mode.o
LOAD c:/devkitPro/libctru/lib\libsftd.a
LOAD c:/devkitPro/portlibs/armv6k/lib\libfreetype.a
LOAD c:/devkitPro/portlibs/armv6k/lib\libpng.a
LOAD c:/devkitPro/portlibs/armv6k/lib\libz.a
LOAD c:/devkitPro/libctru/lib\libsf2d.a
LOAD c:/devkitPro/libctru/lib\libcitro3d.a
LOAD c:/devkitPro/libctru/lib\libctru.a
LOAD c:/devkitpro/devkitarm/bin/../lib/gcc/arm-none-eabi/5.3.0/../../../../arm-none-eabi/lib/armv6k/fpu\libm.a
START GROUP
LOAD c:/devkitpro/devkitarm/bin/../lib/gcc/arm-none-eabi/5.3.0/armv6k/fpu\libgcc.a
LOAD c:/devkitpro/devkitarm/bin/../lib/gcc/arm-none-eabi/5.3.0/../../../../arm-none-eabi/lib/armv6k/fpu\libg.a
LOAD c:/devkitpro/devkitarm/bin/../lib/gcc/arm-none-eabi/5.3.0/../../../../arm-none-eabi/lib/armv6k/fpu\libc.a
LOAD c:/devkitpro/devkitarm/bin/../lib/gcc/arm-none-eabi/5.3.0/../../../../arm-none-eabi/lib/armv6k/fpu\libsysbase.a
END GROUP
LOAD c:/devkitpro/devkitarm/bin/../lib/gcc/arm-none-eabi/5.3.0/armv6k/fpu/crtend.o
LOAD c:/devkitpro/devkitarm/bin/../lib/gcc/arm-none-eabi/5.3.0/armv6k/fpu/crtn.o
OUTPUT(c:/3DS_Projects/Pong/Pong.elf elf32-littlearm)

.ARM.attributes
                0x00000000       0x30
 .ARM.attributes
                0x00000000       0x1e c:/devkitpro/devkitarm/bin/../lib/gcc/arm-none-eabi/5.3.0/../../../../arm-none-eabi/lib/armv6k/fpu/3dsx_crt0.o
 .ARM.attributes
                0x0000001e       0x1c c:/devkitpro/devkitarm/bin/../lib/gcc/arm-none-eabi/5.3.0/armv6k/fpu/crti.o
 .ARM.attributes
                0x0000003a       0x30 c:/devkitpro/devkitarm/bin/../lib/gcc/arm-none-eabi/5.3.0/armv6k/fpu/crtbegin.o
 .ARM.attributes
                0x0000006a       0x2c ball.o
 .ARM.attributes
                0x00000096       0x2c ball_tex.o
 .ARM.attributes
                0x000000c2       0x2c button.o
 .ARM.attributes
                0x000000ee       0x2c button_Selector_Tex.o
 .ARM.attributes
                0x0000011a       0x2c double_Button_Tex.o
 .ARM.attributes
                0x00000146       0x2c game_title_tex.o
 .ARM.attributes
                0x00000172       0x2c main.o
 .ARM.attributes
                0x0000019e       0x2c menu.o
 .ARM.attributes
                0x000001ca       0x2c menu_Title_Tex.o
 .ARM.attributes
                0x000001f6       0x2c midline_Tex.o
 .ARM.attributes
                0x00000222       0x2c paddle.o
 .ARM.attributes
                0x0000024e       0x2c paddle_tex.o
 .ARM.attributes
                0x0000027a       0x2c quit_Button_Tex.o
 .ARM.attributes
                0x000002a6       0x2c single_Button_Tex.o
 .ARM.attributes
                0x000002d2       0x2c two_player_mode.o
 .ARM.attributes
                0x000002fe       0x30 c:/devkitPro/libctru/lib\libsf2d.a(sf2d.o)
 .ARM.attributes
                0x0000032e       0x30 c:/devkitPro/libctru/lib\libsf2d.a(sf2d_texture.o)
 .ARM.attributes
                0x0000035e       0x14 c:/devkitPro/libctru/lib\libsf2d.a(shader.shbin.o)
 .ARM.attributes
                0x00000372       0x30 c:/devkitPro/libctru/lib\libcitro3d.a(attribs.o)
 .ARM.attributes
                0x000003a2       0x30 c:/devkitPro/libctru/lib\libcitro3d.a(base.o)
 .ARM.attributes
                0x000003d2       0x30 c:/devkitPro/libctru/lib\libcitro3d.a(buffers.o)
 .ARM.attributes
                0x00000402       0x30 c:/devkitPro/libctru/lib\libcitro3d.a(drawArrays.o)
 .ARM.attributes
                0x00000432       0x30 c:/devkitPro/libctru/lib\libcitro3d.a(effect.o)
 .ARM.attributes
                0x00000462       0x30 c:/devkitPro/libctru/lib\libcitro3d.a(immediate.o)
 .ARM.attributes
                0x00000492       0x30 c:/devkitPro/libctru/lib\libcitro3d.a(renderbuffer.o)
 .ARM.attributes
                0x000004c2       0x30 c:/devkitPro/libctru/lib\libcitro3d.a(renderqueue.o)
 .ARM.attributes
                0x000004f2       0x30 c:/devkitPro/libctru/lib\libcitro3d.a(texenv.o)
 .ARM.attributes
                0x00000522       0x30 c:/devkitPro/libctru/lib\libcitro3d.a(texture.o)
 .ARM.attributes
                0x00000552       0x30 c:/devkitPro/libctru/lib\libcitro3d.a(uniforms.o)
 .ARM.attributes
                0x00000582       0x30 c:/devkitPro/libctru/lib\libcitro3d.a(mtx_orthotilt.o)
 .ARM.attributes
                0x000005b2       0x30 c:/devkitPro/libctru/lib\libcitro3d.a(mtx_identity.o)
 .ARM.attributes
                0x000005e2       0x30 c:/devkitPro/libctru/lib\libcitro3d.a(mtx_multiply.o)
 .ARM.attributes
                0x00000612       0x30 c:/devkitPro/libctru/lib\libctru.a(linear.o)
 .ARM.attributes
                0x00000642       0x30 c:/devkitPro/libctru/lib\libctru.a(mem_pool.o)
 .ARM.attributes
                0x00000672       0x30 c:/devkitPro/libctru/lib\libctru.a(vram.o)
 .ARM.attributes
                0x000006a2       0x30 c:/devkitPro/libctru/lib\libctru.a(gfx.o)
 .ARM.attributes
                0x000006d2       0x30 c:/devkitPro/libctru/lib\libctru.a(os.o)
 .ARM.attributes
                0x00000702       0x30 c:/devkitPro/libctru/lib\libctru.a(gpu.o)
 .ARM.attributes
                0x00000732       0x30 c:/devkitPro/libctru/lib\libctru.a(gx.o)
 .ARM.attributes
                0x00000762       0x30 c:/devkitPro/libctru/lib\libctru.a(shaderProgram.o)
 .ARM.attributes
                0x00000792       0x30 c:/devkitPro/libctru/lib\libctru.a(shbin.o)
 .ARM.attributes
                0x000007c2       0x30 c:/devkitPro/libctru/lib\libctru.a(apt.o)
 .ARM.attributes
                0x000007f2       0x30 c:/devkitPro/libctru/lib\libctru.a(gspgpu.o)
 .ARM.attributes
                0x00000822       0x30 c:/devkitPro/libctru/lib\libctru.a(hid.o)
 .ARM.attributes
                0x00000852       0x30 c:/devkitPro/libctru/lib\libctru.a(irrst.o)
 .ARM.attributes
                0x00000882       0x30 c:/devkitPro/libctru/lib\libctru.a(ptmsysm.o)
 .ARM.attributes
                0x000008b2       0x30 c:/devkitPro/libctru/lib\libctru.a(rbtree_find.o)
 .ARM.attributes
                0x000008e2       0x30 c:/devkitPro/libctru/lib\libctru.a(rbtree_init.o)
 .ARM.attributes
                0x00000912       0x30 c:/devkitPro/libctru/lib\libctru.a(rbtree_insert.o)
 .ARM.attributes
                0x00000942       0x30 c:/devkitPro/libctru/lib\libctru.a(rbtree_remove.o)
 .ARM.attributes
                0x00000972       0x30 c:/devkitPro/libctru/lib\libctru.a(rbtree_rotate.o)
 .ARM.attributes
                0x000009a2       0x30 c:/devkitPro/libctru/lib\libctru.a(allocateHeaps.o)
 .ARM.attributes
                0x000009d2       0x30 c:/devkitPro/libctru/lib\libctru.a(initArgv.o)
 .ARM.attributes
                0x00000a02       0x30 c:/devkitPro/libctru/lib\libctru.a(initSystem.o)
 .ARM.attributes
                0x00000a32       0x30 c:/devkitPro/libctru/lib\libctru.a(syscalls.o)
 .ARM.attributes
                0x00000a62       0x1a c:/devkitPro/libctru/lib\libctru.a(svc.o)
 .ARM.attributes
                0x00000a7c       0x1a c:/devkitPro/libctru/lib\libctru.a(stack_adjust.o)
 .ARM.attributes
                0x00000a96       0x30 c:/devkitPro/libctru/lib\libctru.a(mappable.o)
 .ARM.attributes
                0x00000ac6       0x30 c:/devkitPro/libctru/lib\libctru.a(env.o)
 .ARM.attributes
                0x00000af6       0x30 c:/devkitPro/libctru/lib\libctru.a(srv.o)
 .ARM.attributes
                0x00000b26       0x30 c:/devkitPro/libctru/lib\libctru.a(synchronization.o)
 .ARM.attributes
                0x00000b56       0x30 c:/devkitPro/libctru/lib\libctru.a(thread.o)
 .ARM.attributes
                0x00000b86       0x30 c:/devkitPro/libctru/lib\libctru.a(rbtree_iterator.o)
 .ARM.attributes
                0x00000bb6       0x30 c:/devkitPro/libctru/lib\libctru.a(appExit.o)
 .ARM.attributes
                0x00000be6       0x30 c:/devkitPro/libctru/lib\libctru.a(appInit.o)
 .ARM.attributes
                0x00000c16       0x30 c:/devkitPro/libctru/lib\libctru.a(ctru_exit.o)
 .ARM.attributes
                0x00000c46       0x30 c:/devkitPro/libctru/lib\libctru.a(sdmc_dev.o)
 .ARM.attributes
                0x00000c76       0x30 c:/devkitPro/libctru/lib\libctru.a(fs.o)
 .ARM.attributes
                0x00000ca6       0x30 c:/devkitPro/libctru/lib\libctru.a(decode_utf8.o)
 .ARM.attributes
                0x00000cd6       0x30 c:/devkitPro/libctru/lib\libctru.a(utf16_to_utf8.o)
 .ARM.attributes
                0x00000d06       0x30 c:/devkitPro/libctru/lib\libctru.a(utf8_to_utf16.o)
 .ARM.attributes
                0x00000d36       0x1a c:/devkitPro/libctru/lib\libctru.a(readtp.o)
 .ARM.attributes
                0x00000d50       0x30 c:/devkitPro/libctru/lib\libctru.a(decode_utf16.o)
 .ARM.attributes
                0x00000d80       0x30 c:/devkitPro/libctru/lib\libctru.a(encode_utf16.o)
 .ARM.attributes
                0x00000db0       0x30 c:/devkitPro/libctru/lib\libctru.a(encode_utf8.o)
 .ARM.attributes
                0x00000de0       0x1c c:/devkitpro/devkitarm/bin/../lib/gcc/arm-none-eabi/5.3.0/armv6k/fpu\libgcc.a(_arm_addsubsf3.o)
 .ARM.attributes
                0x00000dfc       0x1c c:/devkitpro/devkitarm/bin/../lib/gcc/arm-none-eabi/5.3.0/armv6k/fpu\libgcc.a(_dvmd_tls.o)
 .ARM.attributes
                0x00000e18       0x30 c:/devkitpro/devkitarm/bin/../lib/gcc/arm-none-eabi/5.3.0/../../../../arm-none-eabi/lib/armv6k/fpu\libg.a(lib_a-bsearch.o)
 .ARM.attributes
                0x00000e48       0x30 c:/devkitpro/devkitarm/bin/../lib/gcc/arm-none-eabi/5.3.0/../../../../arm-none-eabi/lib/armv6k/fpu\libg.a(lib_a-calloc.o)
 .ARM.attributes
                0x00000e78       0x30 c:/devkitpro/devkitarm/bin/../lib/gcc/arm-none-eabi/5.3.0/../../../../arm-none-eabi/lib/armv6k/fpu\libg.a(lib_a-callocr.o)
 .ARM.attributes
                0x00000ea8       0x30 c:/devkitpro/devkitarm/bin/../lib/gcc/arm-none-eabi/5.3.0/../../../../arm-none-eabi/lib/armv6k/fpu\libg.a(lib_a-fini.o)
 .ARM.attributes
                0x00000ed8       0x30 c:/devkitpro/devkitarm/bin/../lib/gcc/arm-none-eabi/5.3.0/../../../../arm-none-eabi/lib/armv6k/fpu\libg.a(lib_a-impure.o)
 .ARM.attributes
                0x00000f08       0x30 c:/devkitpro/devkitarm/bin/../lib/gcc/arm-none-eabi/5.3.0/../../../../arm-none-eabi/lib/armv6k/fpu\libg.a(lib_a-init.o)
 .ARM.attributes
                0x00000f38       0x30 c:/devkitpro/devkitarm/bin/../lib/gcc/arm-none-eabi/5.3.0/../../../../arm-none-eabi/lib/armv6k/fpu\libg.a(lib_a-malign.o)
 .ARM.attributes
                0x00000f68       0x30 c:/devkitpro/devkitarm/bin/../lib/gcc/arm-none-eabi/5.3.0/../../../../arm-none-eabi/lib/armv6k/fpu\libg.a(lib_a-malignr.o)
 .ARM.attributes
                0x00000f98       0x30 c:/devkitpro/devkitarm/bin/../lib/gcc/arm-none-eabi/5.3.0/../../../../arm-none-eabi/lib/armv6k/fpu\libg.a(lib_a-malloc.o)
 .ARM.attributes
                0x00000fc8       0x30 c:/devkitpro/devkitarm/bin/../lib/gcc/arm-none-eabi/5.3.0/../../../../arm-none-eabi/lib/armv6k/fpu\libg.a(lib_a-mallocr.o)
 .ARM.attributes
                0x00000ff8       0x30 c:/devkitpro/devkitarm/bin/../lib/gcc/arm-none-eabi/5.3.0/../../../../arm-none-eabi/lib/armv6k/fpu\libg.a(lib_a-memcpy.o)
 .ARM.attributes
                0x00001028       0x30 c:/devkitpro/devkitarm/bin/../lib/gcc/arm-none-eabi/5.3.0/../../../../arm-none-eabi/lib/armv6k/fpu\libg.a(lib_a-memset.o)
 .ARM.attributes
                0x00001058       0x30 c:/devkitpro/devkitarm/bin/../lib/gcc/arm-none-eabi/5.3.0/../../../../arm-none-eabi/lib/armv6k/fpu\libg.a(lib_a-mlock.o)
 .ARM.attributes
                0x00001088       0x1a c:/devkitpro/devkitarm/bin/../lib/gcc/arm-none-eabi/5.3.0/../../../../arm-none-eabi/lib/armv6k/fpu\libg.a(lib_a-strcmp.o)
 .ARM.attributes
                0x000010a2       0x30 c:/devkitpro/devkitarm/bin/../lib/gcc/arm-none-eabi/5.3.0/../../../../arm-none-eabi/lib/armv6k/fpu\libg.a(lib_a-strlen.o)
 .ARM.attributes
                0x000010d2       0x30 c:/devkitpro/devkitarm/bin/../lib/gcc/arm-none-eabi/5.3.0/../../../../arm-none-eabi/lib/armv6k/fpu\libg.a(lib_a-strncat.o)
 .ARM.attributes
                0x00001102       0x30 c:/devkitpro/devkitarm/bin/../lib/gcc/arm-none-eabi/5.3.0/../../../../arm-none-eabi/lib/armv6k/fpu\libg.a(lib_a-strncpy.o)
 .ARM.attributes
                0x00001132       0x30 c:/devkitpro/devkitarm/bin/../lib/gcc/arm-none-eabi/5.3.0/../../../../arm-none-eabi/lib/armv6k/fpu\libg.a(lib_a-freer.o)
 .ARM.attributes
                0x00001162       0x30 c:/devkitpro/devkitarm/bin/../lib/gcc/arm-none-eabi/5.3.0/../../../../arm-none-eabi/lib/armv6k/fpu\libsysbase.a(iosupport.o)
 .ARM.attributes
                0x00001192       0x30 c:/devkitpro/devkitarm/bin/../lib/gcc/arm-none-eabi/5.3.0/../../../../arm-none-eabi/lib/armv6k/fpu\libsysbase.a(sbrk.o)
 .ARM.attributes
                0x000011c2       0x30 c:/devkitpro/devkitarm/bin/../lib/gcc/arm-none-eabi/5.3.0/../../../../arm-none-eabi/lib/armv6k/fpu\libsysbase.a(malloc_vars.o)
 .ARM.attributes
                0x000011f2       0x30 c:/devkitpro/devkitarm/bin/../lib/gcc/arm-none-eabi/5.3.0/../../../../arm-none-eabi/lib/armv6k/fpu\libsysbase.a(chdir.o)
 .ARM.attributes
                0x00001222       0x30 c:/devkitpro/devkitarm/bin/../lib/gcc/arm-none-eabi/5.3.0/../../../../arm-none-eabi/lib/armv6k/fpu\libsysbase.a(syscall_support.o)
 .ARM.attributes
                0x00001252       0x30 c:/devkitpro/devkitarm/bin/../lib/gcc/arm-none-eabi/5.3.0/../../../../arm-none-eabi/lib/armv6k/fpu\libsysbase.a(getreent.o)
 .ARM.attributes
                0x00001282       0x1c c:/devkitpro/devkitarm/bin/../lib/gcc/arm-none-eabi/5.3.0/armv6k/fpu\libgcc.a(_udivsi3.o)
 .ARM.attributes
                0x0000129e       0x30 c:/devkitpro/devkitarm/bin/../lib/gcc/arm-none-eabi/5.3.0/../../../../arm-none-eabi/lib/armv6k/fpu\libg.a(lib_a-ctype_.o)
 .ARM.attributes
                0x000012ce       0x30 c:/devkitpro/devkitarm/bin/../lib/gcc/arm-none-eabi/5.3.0/../../../../arm-none-eabi/lib/armv6k/fpu\libg.a(lib_a-strchr.o)
 .ARM.attributes
                0x000012fe       0x30 c:/devkitpro/devkitarm/bin/../lib/gcc/arm-none-eabi/5.3.0/../../../../arm-none-eabi/lib/armv6k/fpu\libg.a(lib_a-strncmp.o)
 .ARM.attributes
                0x0000132e       0x30 c:/devkitpro/devkitarm/bin/../lib/gcc/arm-none-eabi/5.3.0/../../../../arm-none-eabi/lib/armv6k/fpu\libg.a(lib_a-strnlen.o)
 .ARM.attributes
                0x0000135e       0x30 c:/devkitpro/devkitarm/bin/../lib/gcc/arm-none-eabi/5.3.0/../../../../arm-none-eabi/lib/armv6k/fpu\libg.a(lib_a-strrchr.o)
 .ARM.attributes
                0x0000138e       0x30 c:/devkitpro/devkitarm/bin/../lib/gcc/arm-none-eabi/5.3.0/armv6k/fpu/crtend.o
 .ARM.attributes
                0x000013be       0x1c c:/devkitpro/devkitarm/bin/../lib/gcc/arm-none-eabi/5.3.0/armv6k/fpu/crtn.o

.debug_ranges   0x00000000     0x3ad8
 .debug_ranges  0x00000000       0x38 ball.o
 .debug_ranges  0x00000038       0x28 main.o
 .debug_ranges  0x00000060       0x30 menu.o
 .debug_ranges  0x00000090       0x18 two_player_mode.o
 .debug_ranges  0x000000a8      0x198 c:/devkitPro/libctru/lib\libsf2d.a(sf2d.o)
 .debug_ranges  0x00000240      0x510 c:/devkitPro/libctru/lib\libsf2d.a(sf2d_texture.o)
 .debug_ranges  0x00000750       0x38 c:/devkitPro/libctru/lib\libcitro3d.a(attribs.o)
 .debug_ranges  0x00000788      0x130 c:/devkitPro/libctru/lib\libcitro3d.a(base.o)
 .debug_ranges  0x000008b8       0x30 c:/devkitPro/libctru/lib\libcitro3d.a(buffers.o)
 .debug_ranges  0x000008e8       0x60 c:/devkitPro/libctru/lib\libcitro3d.a(drawArrays.o)
 .debug_ranges  0x00000948      0x1c0 c:/devkitPro/libctru/lib\libcitro3d.a(effect.o)
 .debug_ranges  0x00000b08       0x20 c:/devkitPro/libctru/lib\libcitro3d.a(immediate.o)
 .debug_ranges  0x00000b28       0xc0 c:/devkitPro/libctru/lib\libcitro3d.a(renderbuffer.o)
 .debug_ranges  0x00000be8      0x188 c:/devkitPro/libctru/lib\libcitro3d.a(renderqueue.o)
 .debug_ranges  0x00000d70       0x38 c:/devkitPro/libctru/lib\libcitro3d.a(texenv.o)
 .debug_ranges  0x00000da8       0x48 c:/devkitPro/libctru/lib\libcitro3d.a(texture.o)
 .debug_ranges  0x00000df0       0x78 c:/devkitPro/libctru/lib\libcitro3d.a(uniforms.o)
 .debug_ranges  0x00000e68       0x10 c:/devkitPro/libctru/lib\libcitro3d.a(mtx_orthotilt.o)
 .debug_ranges  0x00000e78       0x28 c:/devkitPro/libctru/lib\libcitro3d.a(mtx_identity.o)
 .debug_ranges  0x00000ea0       0x10 c:/devkitPro/libctru/lib\libcitro3d.a(mtx_multiply.o)
 .debug_ranges  0x00000eb0       0x80 c:/devkitPro/libctru/lib\libctru.a(linear.o)
 .debug_ranges  0x00000f30      0x180 c:/devkitPro/libctru/lib\libctru.a(mem_pool.o)
 .debug_ranges  0x000010b0       0x88 c:/devkitPro/libctru/lib\libctru.a(vram.o)
 .debug_ranges  0x00001138       0xd8 c:/devkitPro/libctru/lib\libctru.a(gfx.o)
 .debug_ranges  0x00001210       0x58 c:/devkitPro/libctru/lib\libctru.a(os.o)
 .debug_ranges  0x00001268       0x98 c:/devkitPro/libctru/lib\libctru.a(gpu.o)
 .debug_ranges  0x00001300       0x38 c:/devkitPro/libctru/lib\libctru.a(gx.o)
 .debug_ranges  0x00001338      0x128 c:/devkitPro/libctru/lib\libctru.a(shaderProgram.o)
 .debug_ranges  0x00001460       0x68 c:/devkitPro/libctru/lib\libctru.a(shbin.o)
 .debug_ranges  0x000014c8      0x5f0 c:/devkitPro/libctru/lib\libctru.a(apt.o)
 .debug_ranges  0x00001ab8      0x160 c:/devkitPro/libctru/lib\libctru.a(gspgpu.o)
 .debug_ranges  0x00001c18       0xa0 c:/devkitPro/libctru/lib\libctru.a(hid.o)
 .debug_ranges  0x00001cb8       0x70 c:/devkitPro/libctru/lib\libctru.a(irrst.o)
 .debug_ranges  0x00001d28       0x20 c:/devkitPro/libctru/lib\libctru.a(ptmsysm.o)
 .debug_ranges  0x00001d48       0x30 c:/devkitPro/libctru/lib\libctru.a(rbtree_find.o)
 .debug_ranges  0x00001d78       0x10 c:/devkitPro/libctru/lib\libctru.a(rbtree_init.o)
 .debug_ranges  0x00001d88      0x108 c:/devkitPro/libctru/lib\libctru.a(rbtree_insert.o)
 .debug_ranges  0x00001e90      0x120 c:/devkitPro/libctru/lib\libctru.a(rbtree_remove.o)
 .debug_ranges  0x00001fb0       0x40 c:/devkitPro/libctru/lib\libctru.a(rbtree_rotate.o)
 .debug_ranges  0x00001ff0       0x48 c:/devkitPro/libctru/lib\libctru.a(allocateHeaps.o)
 .debug_ranges  0x00002038       0x10 c:/devkitPro/libctru/lib\libctru.a(initArgv.o)
 .debug_ranges  0x00002048       0x10 c:/devkitPro/libctru/lib\libctru.a(initSystem.o)
 .debug_ranges  0x00002058       0x18 c:/devkitPro/libctru/lib\libctru.a(syscalls.o)
 .debug_ranges  0x00002070      0x288 c:/devkitPro/libctru/lib\libctru.a(svc.o)
 .debug_ranges  0x000022f8       0x78 c:/devkitPro/libctru/lib\libctru.a(mappable.o)
 .debug_ranges  0x00002370       0x18 c:/devkitPro/libctru/lib\libctru.a(env.o)
 .debug_ranges  0x00002388       0x98 c:/devkitPro/libctru/lib\libctru.a(srv.o)
 .debug_ranges  0x00002420      0x248 c:/devkitPro/libctru/lib\libctru.a(synchronization.o)
 .debug_ranges  0x00002668       0x60 c:/devkitPro/libctru/lib\libctru.a(thread.o)
 .debug_ranges  0x000026c8       0x48 c:/devkitPro/libctru/lib\libctru.a(rbtree_iterator.o)
 .debug_ranges  0x00002710       0x10 c:/devkitPro/libctru/lib\libctru.a(appExit.o)
 .debug_ranges  0x00002720       0x10 c:/devkitPro/libctru/lib\libctru.a(appInit.o)
 .debug_ranges  0x00002730       0x10 c:/devkitPro/libctru/lib\libctru.a(ctru_exit.o)
 .debug_ranges  0x00002740      0x170 c:/devkitPro/libctru/lib\libctru.a(sdmc_dev.o)
 .debug_ranges  0x000028b0     0x11c8 c:/devkitPro/libctru/lib\libctru.a(fs.o)
 .debug_ranges  0x00003a78       0x10 c:/devkitPro/libctru/lib\libctru.a(decode_utf8.o)
 .debug_ranges  0x00003a88       0x10 c:/devkitPro/libctru/lib\libctru.a(utf16_to_utf8.o)
 .debug_ranges  0x00003a98       0x10 c:/devkitPro/libctru/lib\libctru.a(utf8_to_utf16.o)
 .debug_ranges  0x00003aa8       0x10 c:/devkitPro/libctru/lib\libctru.a(decode_utf16.o)
 .debug_ranges  0x00003ab8       0x10 c:/devkitPro/libctru/lib\libctru.a(encode_utf16.o)
 .debug_ranges  0x00003ac8       0x10 c:/devkitPro/libctru/lib\libctru.a(encode_utf8.o)
